; Listing generated by Microsoft (R) Optimizing Compiler Version 19.27.29111.0 

	TITLE	C:\Users\Light\source\repos\Spacemonster\Spacemonster-code\src\lua.c
	.686P
	.XMM
	include listing.inc
	.model	flat

INCLUDELIB MSVCRTD
INCLUDELIB OLDNAMES

msvcjmc	SEGMENT
__F66CEB67_corecrt_stdio_config@h DB 01H
__101834BA_corecrt_wstdio@h DB 01H
__AD6A91B7_stdio@h DB 01H
__367CC694_corecrt_memcpy_s@h DB 01H
__DC9673E3_corecrt_wstring@h DB 01H
__A29A7DFB_string@h DB 01H
__45F4AF76_corecrt_wtime@h DB 01H
__8AA3BE86_time@h DB 01H
__186FF47F_stat@h DB 01H
__8C55BF2C_SDL_stdinc@h DB 01H
__A594C705_SDL_endian@h DB 01H
__09340588_corecrt_math@h DB 01H
__B0C4CEA9_malloc@h DB 01H
__AF08451A_xmmintrin@h DB 01H
__6853117E_SDL_rect@h DB 01H
__01CC0242_x86@h DB 01H
__8B2C0229_util@h DB 01H
__E45A7869_vec2-ext@h DB 01H
__59A72D6B_vec2@h DB 01H
__422D73DD_vec3-ext@h DB 01H
__878A4D53_vec4-ext@h DB 01H
__5D2A51D9_vec4@h DB 01H
__5865475C_vec3@h DB 01H
__E3FCB8B3_mat4@h DB 01H
__0C756A67_mat4@h DB 01H
__E6B3AE36_mat3@h DB 01H
__093A7CE2_mat3@h DB 01H
__E771C401_mat2@h DB 01H
__08F816D5_mat2@h DB 01H
__CD658D3A_affine@h DB 01H
__1529E0A7_affine-mat@h DB 01H
__40ECD150_affine@h DB 01H
__FC78FBBD_plane@h DB 01H
__40246743_cam@h DB 01H
__EE1FA25F_frustum@h DB 01H
__15D5617C_quat@h DB 01H
__FA5CB3A8_quat@h DB 01H
__DBBFEDC2_euler@h DB 01H
__8776585B_box@h DB 01H
__759F1961_color@h DB 01H
__DAA4108F_io@h DB 01H
__EDB727F9_project@h DB 01H
__9F492AA4_sphere@h DB 01H
__108F9434_ease@h DB 01H
__3C7ABC9F_curve@h DB 01H
__45F73C3A_bezier@h DB 01H
__068BD2DD_ray@h DB 01H
__10D40EFF_affine2d@h DB 01H
__709B2585_lua@c DB 01H
msvcjmc	ENDS
PUBLIC	___local_stdio_printf_options
PUBLIC	__vfprintf_l
PUBLIC	_vfprintf
PUBLIC	_error
PUBLIC	__JustMyCode_Default
EXTRN	__imp____acrt_iob_func:PROC
EXTRN	__imp____stdio_common_vfprintf:PROC
EXTRN	__imp__exit:PROC
EXTRN	_lua_close:PROC
EXTRN	@__CheckForDebuggerJustMyCode@4:PROC
EXTRN	__RTC_CheckEsp:PROC
EXTRN	__RTC_InitBase:PROC
EXTRN	__RTC_Shutdown:PROC
_DATA	SEGMENT
COMM	?_OptionsStorage@?1??__local_stdio_printf_options@@9@9:QWORD							; `__local_stdio_printf_options'::`2'::_OptionsStorage
_DATA	ENDS
;	COMDAT rtc$TMZ
rtc$TMZ	SEGMENT
__RTC_Shutdown.rtc$TMZ DD FLAT:__RTC_Shutdown
rtc$TMZ	ENDS
;	COMDAT rtc$IMZ
rtc$IMZ	SEGMENT
__RTC_InitBase.rtc$IMZ DD FLAT:__RTC_InitBase
rtc$IMZ	ENDS
; Function compile flags: /Odt
;	COMDAT __JustMyCode_Default
_TEXT	SEGMENT
__JustMyCode_Default PROC				; COMDAT
  00000	55		 push	 ebp
  00001	8b ec		 mov	 ebp, esp
  00003	5d		 pop	 ebp
  00004	c3		 ret	 0
__JustMyCode_Default ENDP
_TEXT	ENDS
; Function compile flags: /Odtp /RTCsu /ZI
; File C:\Users\Light\source\repos\Spacemonster\Spacemonster-code\src\lua.c
;	COMDAT _error
_TEXT	SEGMENT
_argp$ = -8						; size = 4
_L$ = 8							; size = 4
_fmt$ = 12						; size = 4
_error	PROC						; COMDAT

; 3    : void error(lua_State* L, const char* fmt, ...) {

  00000	55		 push	 ebp
  00001	8b ec		 mov	 ebp, esp
  00003	81 ec cc 00 00
	00		 sub	 esp, 204		; 000000ccH
  00009	53		 push	 ebx
  0000a	56		 push	 esi
  0000b	57		 push	 edi
  0000c	8d bd 34 ff ff
	ff		 lea	 edi, DWORD PTR [ebp-204]
  00012	b9 33 00 00 00	 mov	 ecx, 51			; 00000033H
  00017	b8 cc cc cc cc	 mov	 eax, -858993460		; ccccccccH
  0001c	f3 ab		 rep stosd
  0001e	b9 00 00 00 00	 mov	 ecx, OFFSET __709B2585_lua@c
  00023	e8 00 00 00 00	 call	 @__CheckForDebuggerJustMyCode@4

; 4    :     va_list argp;
; 5    :     va_start(argp, fmt);

  00028	8d 45 10	 lea	 eax, DWORD PTR _fmt$[ebp+4]
  0002b	89 45 f8	 mov	 DWORD PTR _argp$[ebp], eax

; 6    :     vfprintf(stderr, fmt, argp);

  0002e	8b 45 f8	 mov	 eax, DWORD PTR _argp$[ebp]
  00031	50		 push	 eax
  00032	8b 4d 0c	 mov	 ecx, DWORD PTR _fmt$[ebp]
  00035	51		 push	 ecx
  00036	8b f4		 mov	 esi, esp
  00038	6a 02		 push	 2
  0003a	ff 15 00 00 00
	00		 call	 DWORD PTR __imp____acrt_iob_func
  00040	83 c4 04	 add	 esp, 4
  00043	3b f4		 cmp	 esi, esp
  00045	e8 00 00 00 00	 call	 __RTC_CheckEsp
  0004a	50		 push	 eax
  0004b	e8 00 00 00 00	 call	 _vfprintf
  00050	83 c4 0c	 add	 esp, 12			; 0000000cH

; 7    :     va_end(argp);

  00053	c7 45 f8 00 00
	00 00		 mov	 DWORD PTR _argp$[ebp], 0

; 8    :     lua_close(L);

  0005a	8b 45 08	 mov	 eax, DWORD PTR _L$[ebp]
  0005d	50		 push	 eax
  0005e	e8 00 00 00 00	 call	 _lua_close
  00063	83 c4 04	 add	 esp, 4

; 9    :     exit(EXIT_FAILURE);

  00066	8b f4		 mov	 esi, esp
  00068	6a 01		 push	 1
  0006a	ff 15 00 00 00
	00		 call	 DWORD PTR __imp__exit
  00070	3b f4		 cmp	 esi, esp
  00072	e8 00 00 00 00	 call	 __RTC_CheckEsp
$LN2@error:

; 10   : }

  00077	5f		 pop	 edi
  00078	5e		 pop	 esi
  00079	5b		 pop	 ebx
  0007a	81 c4 cc 00 00
	00		 add	 esp, 204		; 000000ccH
  00080	3b ec		 cmp	 ebp, esp
  00082	e8 00 00 00 00	 call	 __RTC_CheckEsp
  00087	8b e5		 mov	 esp, ebp
  00089	5d		 pop	 ebp
  0008a	c3		 ret	 0
_error	ENDP
_TEXT	ENDS
; Function compile flags: /Odtp /RTCsu /ZI
; File C:\Program Files (x86)\Windows Kits\10\Include\10.0.18362.0\ucrt\stdio.h
;	COMDAT _vfprintf
_TEXT	SEGMENT
__Stream$ = 8						; size = 4
__Format$ = 12						; size = 4
__ArgList$ = 16						; size = 4
_vfprintf PROC						; COMDAT

; 656  :     {

  00000	55		 push	 ebp
  00001	8b ec		 mov	 ebp, esp
  00003	81 ec c0 00 00
	00		 sub	 esp, 192		; 000000c0H
  00009	53		 push	 ebx
  0000a	56		 push	 esi
  0000b	57		 push	 edi
  0000c	8d bd 40 ff ff
	ff		 lea	 edi, DWORD PTR [ebp-192]
  00012	b9 30 00 00 00	 mov	 ecx, 48			; 00000030H
  00017	b8 cc cc cc cc	 mov	 eax, -858993460		; ccccccccH
  0001c	f3 ab		 rep stosd
  0001e	b9 00 00 00 00	 mov	 ecx, OFFSET __AD6A91B7_stdio@h
  00023	e8 00 00 00 00	 call	 @__CheckForDebuggerJustMyCode@4

; 657  :         return _vfprintf_l(_Stream, _Format, NULL, _ArgList);

  00028	8b 45 10	 mov	 eax, DWORD PTR __ArgList$[ebp]
  0002b	50		 push	 eax
  0002c	6a 00		 push	 0
  0002e	8b 4d 0c	 mov	 ecx, DWORD PTR __Format$[ebp]
  00031	51		 push	 ecx
  00032	8b 55 08	 mov	 edx, DWORD PTR __Stream$[ebp]
  00035	52		 push	 edx
  00036	e8 00 00 00 00	 call	 __vfprintf_l
  0003b	83 c4 10	 add	 esp, 16			; 00000010H

; 658  :     }

  0003e	5f		 pop	 edi
  0003f	5e		 pop	 esi
  00040	5b		 pop	 ebx
  00041	81 c4 c0 00 00
	00		 add	 esp, 192		; 000000c0H
  00047	3b ec		 cmp	 ebp, esp
  00049	e8 00 00 00 00	 call	 __RTC_CheckEsp
  0004e	8b e5		 mov	 esp, ebp
  00050	5d		 pop	 ebp
  00051	c3		 ret	 0
_vfprintf ENDP
_TEXT	ENDS
; Function compile flags: /Odtp /RTCsu /ZI
; File C:\Program Files (x86)\Windows Kits\10\Include\10.0.18362.0\ucrt\stdio.h
;	COMDAT __vfprintf_l
_TEXT	SEGMENT
__Stream$ = 8						; size = 4
__Format$ = 12						; size = 4
__Locale$ = 16						; size = 4
__ArgList$ = 20						; size = 4
__vfprintf_l PROC					; COMDAT

; 642  :     {

  00000	55		 push	 ebp
  00001	8b ec		 mov	 ebp, esp
  00003	81 ec c0 00 00
	00		 sub	 esp, 192		; 000000c0H
  00009	53		 push	 ebx
  0000a	56		 push	 esi
  0000b	57		 push	 edi
  0000c	8d bd 40 ff ff
	ff		 lea	 edi, DWORD PTR [ebp-192]
  00012	b9 30 00 00 00	 mov	 ecx, 48			; 00000030H
  00017	b8 cc cc cc cc	 mov	 eax, -858993460		; ccccccccH
  0001c	f3 ab		 rep stosd
  0001e	b9 00 00 00 00	 mov	 ecx, OFFSET __AD6A91B7_stdio@h
  00023	e8 00 00 00 00	 call	 @__CheckForDebuggerJustMyCode@4

; 643  :         return __stdio_common_vfprintf(_CRT_INTERNAL_LOCAL_PRINTF_OPTIONS, _Stream, _Format, _Locale, _ArgList);

  00028	8b f4		 mov	 esi, esp
  0002a	8b 45 14	 mov	 eax, DWORD PTR __ArgList$[ebp]
  0002d	50		 push	 eax
  0002e	8b 4d 10	 mov	 ecx, DWORD PTR __Locale$[ebp]
  00031	51		 push	 ecx
  00032	8b 55 0c	 mov	 edx, DWORD PTR __Format$[ebp]
  00035	52		 push	 edx
  00036	8b 45 08	 mov	 eax, DWORD PTR __Stream$[ebp]
  00039	50		 push	 eax
  0003a	e8 00 00 00 00	 call	 ___local_stdio_printf_options
  0003f	8b 48 04	 mov	 ecx, DWORD PTR [eax+4]
  00042	51		 push	 ecx
  00043	8b 10		 mov	 edx, DWORD PTR [eax]
  00045	52		 push	 edx
  00046	ff 15 00 00 00
	00		 call	 DWORD PTR __imp____stdio_common_vfprintf
  0004c	83 c4 18	 add	 esp, 24			; 00000018H
  0004f	3b f4		 cmp	 esi, esp
  00051	e8 00 00 00 00	 call	 __RTC_CheckEsp

; 644  :     }

  00056	5f		 pop	 edi
  00057	5e		 pop	 esi
  00058	5b		 pop	 ebx
  00059	81 c4 c0 00 00
	00		 add	 esp, 192		; 000000c0H
  0005f	3b ec		 cmp	 ebp, esp
  00061	e8 00 00 00 00	 call	 __RTC_CheckEsp
  00066	8b e5		 mov	 esp, ebp
  00068	5d		 pop	 ebp
  00069	c3		 ret	 0
__vfprintf_l ENDP
_TEXT	ENDS
; Function compile flags: /Odtp /RTCsu /ZI
; File C:\Program Files (x86)\Windows Kits\10\Include\10.0.18362.0\ucrt\corecrt_stdio_config.h
;	COMDAT ___local_stdio_printf_options
_TEXT	SEGMENT
___local_stdio_printf_options PROC			; COMDAT

; 86   :     {

  00000	55		 push	 ebp
  00001	8b ec		 mov	 ebp, esp
  00003	81 ec c0 00 00
	00		 sub	 esp, 192		; 000000c0H
  00009	53		 push	 ebx
  0000a	56		 push	 esi
  0000b	57		 push	 edi
  0000c	8d bd 40 ff ff
	ff		 lea	 edi, DWORD PTR [ebp-192]
  00012	b9 30 00 00 00	 mov	 ecx, 48			; 00000030H
  00017	b8 cc cc cc cc	 mov	 eax, -858993460		; ccccccccH
  0001c	f3 ab		 rep stosd
  0001e	b9 00 00 00 00	 mov	 ecx, OFFSET __F66CEB67_corecrt_stdio_config@h
  00023	e8 00 00 00 00	 call	 @__CheckForDebuggerJustMyCode@4

; 87   :         static unsigned __int64 _OptionsStorage;
; 88   :         return &_OptionsStorage;

  00028	b8 00 00 00 00	 mov	 eax, OFFSET ?_OptionsStorage@?1??__local_stdio_printf_options@@9@9 ; `__local_stdio_printf_options'::`2'::_OptionsStorage

; 89   :     }

  0002d	5f		 pop	 edi
  0002e	5e		 pop	 esi
  0002f	5b		 pop	 ebx
  00030	81 c4 c0 00 00
	00		 add	 esp, 192		; 000000c0H
  00036	3b ec		 cmp	 ebp, esp
  00038	e8 00 00 00 00	 call	 __RTC_CheckEsp
  0003d	8b e5		 mov	 esp, ebp
  0003f	5d		 pop	 ebp
  00040	c3		 ret	 0
___local_stdio_printf_options ENDP
_TEXT	ENDS
END
