; Listing generated by Microsoft (R) Optimizing Compiler Version 19.27.29111.0 

	TITLE	C:\Users\Light\source\repos\Spacemonster\Spacemonster-code\glad\glad.c
	.686P
	.XMM
	include listing.inc
	.model	flat

INCLUDELIB MSVCRTD
INCLUDELIB OLDNAMES

PUBLIC	_GLVersion
PUBLIC	_GLAD_GL_VERSION_1_0
PUBLIC	_glad_glCullFace
PUBLIC	_glad_glFrontFace
PUBLIC	_glad_glHint
PUBLIC	_glad_glLineWidth
PUBLIC	_glad_glPointSize
PUBLIC	_glad_glPolygonMode
PUBLIC	_glad_glScissor
PUBLIC	_glad_glTexParameterf
PUBLIC	_glad_glTexParameterfv
PUBLIC	_glad_glTexParameteri
PUBLIC	_glad_glTexParameteriv
PUBLIC	_glad_glTexImage1D
PUBLIC	_glad_glTexImage2D
PUBLIC	_glad_glDrawBuffer
PUBLIC	_glad_glClear
PUBLIC	_glad_glClearColor
PUBLIC	_glad_glClearStencil
PUBLIC	_glad_glClearDepth
PUBLIC	_glad_glStencilMask
PUBLIC	_glad_glColorMask
PUBLIC	_glad_glDepthMask
PUBLIC	_glad_glDisable
PUBLIC	_glad_glEnable
PUBLIC	_glad_glFinish
PUBLIC	_glad_glFlush
PUBLIC	_glad_glBlendFunc
PUBLIC	_glad_glLogicOp
PUBLIC	_glad_glStencilFunc
PUBLIC	_glad_glStencilOp
PUBLIC	_glad_glDepthFunc
PUBLIC	_glad_glPixelStoref
PUBLIC	_glad_glPixelStorei
PUBLIC	_glad_glReadBuffer
PUBLIC	_glad_glReadPixels
PUBLIC	_glad_glGetBooleanv
PUBLIC	_glad_glGetDoublev
PUBLIC	_glad_glGetError
PUBLIC	_glad_glGetFloatv
PUBLIC	_glad_glGetIntegerv
PUBLIC	_glad_glGetString
PUBLIC	_glad_glGetTexImage
PUBLIC	_glad_glGetTexParameterfv
PUBLIC	_glad_glGetTexParameteriv
PUBLIC	_glad_glGetTexLevelParameterfv
PUBLIC	_glad_glGetTexLevelParameteriv
PUBLIC	_glad_glIsEnabled
PUBLIC	_glad_glDepthRange
PUBLIC	_glad_glViewport
PUBLIC	_glad_glNewList
PUBLIC	_glad_glEndList
PUBLIC	_glad_glCallList
PUBLIC	_glad_glCallLists
PUBLIC	_glad_glDeleteLists
PUBLIC	_glad_glGenLists
PUBLIC	_glad_glListBase
PUBLIC	_glad_glBegin
PUBLIC	_glad_glBitmap
PUBLIC	_glad_glColor3b
PUBLIC	_glad_glColor3bv
PUBLIC	_glad_glColor3d
PUBLIC	_glad_glColor3dv
PUBLIC	_glad_glColor3f
PUBLIC	_glad_glColor3fv
PUBLIC	_glad_glColor3i
PUBLIC	_glad_glColor3iv
PUBLIC	_glad_glColor3s
PUBLIC	_glad_glColor3sv
PUBLIC	_glad_glColor3ub
PUBLIC	_glad_glColor3ubv
PUBLIC	_glad_glColor3ui
PUBLIC	_glad_glColor3uiv
PUBLIC	_glad_glColor3us
PUBLIC	_glad_glColor3usv
PUBLIC	_glad_glColor4b
PUBLIC	_glad_glColor4bv
PUBLIC	_glad_glColor4d
PUBLIC	_glad_glColor4dv
PUBLIC	_glad_glColor4f
PUBLIC	_glad_glColor4fv
PUBLIC	_glad_glColor4i
PUBLIC	_glad_glColor4iv
PUBLIC	_glad_glColor4s
PUBLIC	_glad_glColor4sv
PUBLIC	_glad_glColor4ub
PUBLIC	_glad_glColor4ubv
PUBLIC	_glad_glColor4ui
PUBLIC	_glad_glColor4uiv
PUBLIC	_glad_glColor4us
PUBLIC	_glad_glColor4usv
PUBLIC	_glad_glEdgeFlag
PUBLIC	_glad_glEdgeFlagv
PUBLIC	_glad_glEnd
PUBLIC	_glad_glIndexd
PUBLIC	_glad_glIndexdv
PUBLIC	_glad_glIndexf
PUBLIC	_glad_glIndexfv
PUBLIC	_glad_glIndexi
PUBLIC	_glad_glIndexiv
PUBLIC	_glad_glIndexs
PUBLIC	_glad_glIndexsv
PUBLIC	_glad_glNormal3b
PUBLIC	_glad_glNormal3bv
PUBLIC	_glad_glNormal3d
PUBLIC	_glad_glNormal3dv
PUBLIC	_glad_glNormal3f
PUBLIC	_glad_glNormal3fv
PUBLIC	_glad_glNormal3i
PUBLIC	_glad_glNormal3iv
PUBLIC	_glad_glNormal3s
PUBLIC	_glad_glNormal3sv
PUBLIC	_glad_glRasterPos2d
PUBLIC	_glad_glRasterPos2dv
PUBLIC	_glad_glRasterPos2f
PUBLIC	_glad_glRasterPos2fv
PUBLIC	_glad_glRasterPos2i
PUBLIC	_glad_glRasterPos2iv
PUBLIC	_glad_glRasterPos2s
PUBLIC	_glad_glRasterPos2sv
PUBLIC	_glad_glRasterPos3d
PUBLIC	_glad_glRasterPos3dv
PUBLIC	_glad_glRasterPos3f
PUBLIC	_glad_glRasterPos3fv
PUBLIC	_glad_glRasterPos3i
PUBLIC	_glad_glRasterPos3iv
PUBLIC	_glad_glRasterPos3s
PUBLIC	_glad_glRasterPos3sv
PUBLIC	_glad_glRasterPos4d
PUBLIC	_glad_glRasterPos4dv
PUBLIC	_glad_glRasterPos4f
PUBLIC	_glad_glRasterPos4fv
PUBLIC	_glad_glRasterPos4i
PUBLIC	_glad_glRasterPos4iv
PUBLIC	_glad_glRasterPos4s
PUBLIC	_glad_glRasterPos4sv
PUBLIC	_glad_glRectd
PUBLIC	_glad_glRectdv
PUBLIC	_glad_glRectf
PUBLIC	_glad_glRectfv
PUBLIC	_glad_glRecti
PUBLIC	_glad_glRectiv
PUBLIC	_glad_glRects
PUBLIC	_glad_glRectsv
PUBLIC	_glad_glTexCoord1d
PUBLIC	_glad_glTexCoord1dv
PUBLIC	_glad_glTexCoord1f
PUBLIC	_glad_glTexCoord1fv
PUBLIC	_glad_glTexCoord1i
PUBLIC	_glad_glTexCoord1iv
PUBLIC	_glad_glTexCoord1s
PUBLIC	_glad_glTexCoord1sv
PUBLIC	_glad_glTexCoord2d
PUBLIC	_glad_glTexCoord2dv
PUBLIC	_glad_glTexCoord2f
PUBLIC	_glad_glTexCoord2fv
PUBLIC	_glad_glTexCoord2i
PUBLIC	_glad_glTexCoord2iv
PUBLIC	_glad_glTexCoord2s
PUBLIC	_glad_glTexCoord2sv
PUBLIC	_glad_glTexCoord3d
PUBLIC	_glad_glTexCoord3dv
PUBLIC	_glad_glTexCoord3f
PUBLIC	_glad_glTexCoord3fv
PUBLIC	_glad_glTexCoord3i
PUBLIC	_glad_glTexCoord3iv
PUBLIC	_glad_glTexCoord3s
PUBLIC	_glad_glTexCoord3sv
PUBLIC	_glad_glTexCoord4d
PUBLIC	_glad_glTexCoord4dv
PUBLIC	_glad_glTexCoord4f
PUBLIC	_glad_glTexCoord4fv
PUBLIC	_glad_glTexCoord4i
PUBLIC	_glad_glTexCoord4iv
PUBLIC	_glad_glTexCoord4s
PUBLIC	_glad_glTexCoord4sv
PUBLIC	_glad_glVertex2d
PUBLIC	_glad_glVertex2dv
PUBLIC	_glad_glVertex2f
PUBLIC	_glad_glVertex2fv
PUBLIC	_glad_glVertex2i
PUBLIC	_glad_glVertex2iv
PUBLIC	_glad_glVertex2s
PUBLIC	_glad_glVertex2sv
PUBLIC	_glad_glVertex3d
PUBLIC	_glad_glVertex3dv
PUBLIC	_glad_glVertex3f
PUBLIC	_glad_glVertex3fv
PUBLIC	_glad_glVertex3i
PUBLIC	_glad_glVertex3iv
PUBLIC	_glad_glVertex3s
PUBLIC	_glad_glVertex3sv
PUBLIC	_glad_glVertex4d
PUBLIC	_glad_glVertex4dv
PUBLIC	_glad_glVertex4f
PUBLIC	_glad_glVertex4fv
PUBLIC	_glad_glVertex4i
PUBLIC	_glad_glVertex4iv
PUBLIC	_glad_glVertex4s
PUBLIC	_glad_glVertex4sv
PUBLIC	_glad_glClipPlane
PUBLIC	_glad_glColorMaterial
PUBLIC	_glad_glFogf
PUBLIC	_glad_glFogfv
PUBLIC	_glad_glFogi
PUBLIC	_glad_glFogiv
PUBLIC	_glad_glLightf
PUBLIC	_glad_glLightfv
PUBLIC	_glad_glLighti
PUBLIC	_glad_glLightiv
PUBLIC	_glad_glLightModelf
PUBLIC	_glad_glLightModelfv
PUBLIC	_glad_glLightModeli
PUBLIC	_glad_glLightModeliv
PUBLIC	_glad_glLineStipple
PUBLIC	_glad_glMaterialf
PUBLIC	_glad_glMaterialfv
PUBLIC	_glad_glMateriali
PUBLIC	_glad_glMaterialiv
PUBLIC	_glad_glPolygonStipple
PUBLIC	_glad_glShadeModel
PUBLIC	_glad_glTexEnvf
PUBLIC	_glad_glTexEnvfv
PUBLIC	_glad_glTexEnvi
PUBLIC	_glad_glTexEnviv
PUBLIC	_glad_glTexGend
PUBLIC	_glad_glTexGendv
PUBLIC	_glad_glTexGenf
PUBLIC	_glad_glTexGenfv
PUBLIC	_glad_glTexGeni
PUBLIC	_glad_glTexGeniv
PUBLIC	_glad_glFeedbackBuffer
PUBLIC	_glad_glSelectBuffer
PUBLIC	_glad_glRenderMode
PUBLIC	_glad_glInitNames
PUBLIC	_glad_glLoadName
PUBLIC	_glad_glPassThrough
PUBLIC	_glad_glPopName
PUBLIC	_glad_glPushName
PUBLIC	_glad_glClearAccum
PUBLIC	_glad_glClearIndex
PUBLIC	_glad_glIndexMask
PUBLIC	_glad_glAccum
PUBLIC	_glad_glPopAttrib
PUBLIC	_glad_glPushAttrib
PUBLIC	_glad_glMap1d
PUBLIC	_glad_glMap1f
PUBLIC	_glad_glMap2d
PUBLIC	_glad_glMap2f
PUBLIC	_glad_glMapGrid1d
PUBLIC	_glad_glMapGrid1f
PUBLIC	_glad_glMapGrid2d
PUBLIC	_glad_glMapGrid2f
PUBLIC	_glad_glEvalCoord1d
PUBLIC	_glad_glEvalCoord1dv
PUBLIC	_glad_glEvalCoord1f
PUBLIC	_glad_glEvalCoord1fv
PUBLIC	_glad_glEvalCoord2d
PUBLIC	_glad_glEvalCoord2dv
PUBLIC	_glad_glEvalCoord2f
PUBLIC	_glad_glEvalCoord2fv
PUBLIC	_glad_glEvalMesh1
PUBLIC	_glad_glEvalPoint1
PUBLIC	_glad_glEvalMesh2
PUBLIC	_glad_glEvalPoint2
PUBLIC	_glad_glAlphaFunc
PUBLIC	_glad_glPixelZoom
PUBLIC	_glad_glPixelTransferf
PUBLIC	_glad_glPixelTransferi
PUBLIC	_glad_glPixelMapfv
PUBLIC	_glad_glPixelMapuiv
PUBLIC	_glad_glPixelMapusv
PUBLIC	_glad_glCopyPixels
PUBLIC	_glad_glDrawPixels
PUBLIC	_glad_glGetClipPlane
PUBLIC	_glad_glGetLightfv
PUBLIC	_glad_glGetLightiv
PUBLIC	_glad_glGetMapdv
PUBLIC	_glad_glGetMapfv
PUBLIC	_glad_glGetMapiv
PUBLIC	_glad_glGetMaterialfv
PUBLIC	_glad_glGetMaterialiv
PUBLIC	_glad_glGetPixelMapfv
PUBLIC	_glad_glGetPixelMapuiv
PUBLIC	_glad_glGetPixelMapusv
PUBLIC	_glad_glGetPolygonStipple
PUBLIC	_glad_glGetTexEnvfv
PUBLIC	_glad_glGetTexEnviv
PUBLIC	_glad_glGetTexGendv
PUBLIC	_glad_glGetTexGenfv
PUBLIC	_glad_glGetTexGeniv
PUBLIC	_glad_glIsList
PUBLIC	_glad_glFrustum
PUBLIC	_glad_glLoadIdentity
PUBLIC	_glad_glLoadMatrixf
PUBLIC	_glad_glLoadMatrixd
PUBLIC	_glad_glMatrixMode
PUBLIC	_glad_glMultMatrixf
PUBLIC	_glad_glMultMatrixd
PUBLIC	_glad_glOrtho
PUBLIC	_glad_glPopMatrix
PUBLIC	_glad_glPushMatrix
PUBLIC	_glad_glRotated
PUBLIC	_glad_glRotatef
PUBLIC	_glad_glScaled
PUBLIC	_glad_glScalef
PUBLIC	_glad_glTranslated
PUBLIC	_glad_glTranslatef
PUBLIC	_GLAD_GL_VERSION_1_1
PUBLIC	_glad_glDrawArrays
PUBLIC	_glad_glDrawElements
PUBLIC	_glad_glGetPointerv
PUBLIC	_glad_glPolygonOffset
PUBLIC	_glad_glCopyTexImage1D
PUBLIC	_glad_glCopyTexImage2D
PUBLIC	_glad_glCopyTexSubImage1D
PUBLIC	_glad_glCopyTexSubImage2D
PUBLIC	_glad_glTexSubImage1D
PUBLIC	_glad_glTexSubImage2D
PUBLIC	_glad_glBindTexture
PUBLIC	_glad_glDeleteTextures
PUBLIC	_glad_glGenTextures
PUBLIC	_glad_glIsTexture
PUBLIC	_glad_glArrayElement
PUBLIC	_glad_glColorPointer
PUBLIC	_glad_glDisableClientState
PUBLIC	_glad_glEdgeFlagPointer
PUBLIC	_glad_glEnableClientState
PUBLIC	_glad_glIndexPointer
PUBLIC	_glad_glInterleavedArrays
PUBLIC	_glad_glNormalPointer
PUBLIC	_glad_glTexCoordPointer
PUBLIC	_glad_glVertexPointer
PUBLIC	_glad_glAreTexturesResident
PUBLIC	_glad_glPrioritizeTextures
PUBLIC	_glad_glIndexub
PUBLIC	_glad_glIndexubv
PUBLIC	_glad_glPopClientAttrib
PUBLIC	_glad_glPushClientAttrib
PUBLIC	_GLAD_GL_VERSION_1_2
PUBLIC	_glad_glDrawRangeElements
PUBLIC	_glad_glTexImage3D
PUBLIC	_glad_glTexSubImage3D
PUBLIC	_glad_glCopyTexSubImage3D
PUBLIC	_GLAD_GL_VERSION_1_3
PUBLIC	_glad_glActiveTexture
PUBLIC	_glad_glSampleCoverage
PUBLIC	_glad_glCompressedTexImage3D
PUBLIC	_glad_glCompressedTexImage2D
PUBLIC	_glad_glCompressedTexImage1D
PUBLIC	_glad_glCompressedTexSubImage3D
PUBLIC	_glad_glCompressedTexSubImage2D
PUBLIC	_glad_glCompressedTexSubImage1D
PUBLIC	_glad_glGetCompressedTexImage
PUBLIC	_glad_glClientActiveTexture
PUBLIC	_glad_glMultiTexCoord1d
PUBLIC	_glad_glMultiTexCoord1dv
PUBLIC	_glad_glMultiTexCoord1f
PUBLIC	_glad_glMultiTexCoord1fv
PUBLIC	_glad_glMultiTexCoord1i
PUBLIC	_glad_glMultiTexCoord1iv
PUBLIC	_glad_glMultiTexCoord1s
PUBLIC	_glad_glMultiTexCoord1sv
PUBLIC	_glad_glMultiTexCoord2d
PUBLIC	_glad_glMultiTexCoord2dv
PUBLIC	_glad_glMultiTexCoord2f
PUBLIC	_glad_glMultiTexCoord2fv
PUBLIC	_glad_glMultiTexCoord2i
PUBLIC	_glad_glMultiTexCoord2iv
PUBLIC	_glad_glMultiTexCoord2s
PUBLIC	_glad_glMultiTexCoord2sv
PUBLIC	_glad_glMultiTexCoord3d
PUBLIC	_glad_glMultiTexCoord3dv
PUBLIC	_glad_glMultiTexCoord3f
PUBLIC	_glad_glMultiTexCoord3fv
PUBLIC	_glad_glMultiTexCoord3i
PUBLIC	_glad_glMultiTexCoord3iv
PUBLIC	_glad_glMultiTexCoord3s
PUBLIC	_glad_glMultiTexCoord3sv
PUBLIC	_glad_glMultiTexCoord4d
PUBLIC	_glad_glMultiTexCoord4dv
PUBLIC	_glad_glMultiTexCoord4f
PUBLIC	_glad_glMultiTexCoord4fv
PUBLIC	_glad_glMultiTexCoord4i
PUBLIC	_glad_glMultiTexCoord4iv
PUBLIC	_glad_glMultiTexCoord4s
PUBLIC	_glad_glMultiTexCoord4sv
PUBLIC	_glad_glLoadTransposeMatrixf
PUBLIC	_glad_glLoadTransposeMatrixd
PUBLIC	_glad_glMultTransposeMatrixf
PUBLIC	_glad_glMultTransposeMatrixd
PUBLIC	_GLAD_GL_VERSION_1_4
PUBLIC	_glad_glBlendFuncSeparate
PUBLIC	_glad_glMultiDrawArrays
PUBLIC	_glad_glMultiDrawElements
PUBLIC	_glad_glPointParameterf
PUBLIC	_glad_glPointParameterfv
PUBLIC	_glad_glPointParameteri
PUBLIC	_glad_glPointParameteriv
PUBLIC	_glad_glFogCoordf
PUBLIC	_glad_glFogCoordfv
PUBLIC	_glad_glFogCoordd
PUBLIC	_glad_glFogCoorddv
PUBLIC	_glad_glFogCoordPointer
PUBLIC	_glad_glSecondaryColor3b
PUBLIC	_glad_glSecondaryColor3bv
PUBLIC	_glad_glSecondaryColor3d
PUBLIC	_glad_glSecondaryColor3dv
PUBLIC	_glad_glSecondaryColor3f
PUBLIC	_glad_glSecondaryColor3fv
PUBLIC	_glad_glSecondaryColor3i
PUBLIC	_glad_glSecondaryColor3iv
PUBLIC	_glad_glSecondaryColor3s
PUBLIC	_glad_glSecondaryColor3sv
PUBLIC	_glad_glSecondaryColor3ub
PUBLIC	_glad_glSecondaryColor3ubv
PUBLIC	_glad_glSecondaryColor3ui
PUBLIC	_glad_glSecondaryColor3uiv
PUBLIC	_glad_glSecondaryColor3us
PUBLIC	_glad_glSecondaryColor3usv
PUBLIC	_glad_glSecondaryColorPointer
PUBLIC	_glad_glWindowPos2d
PUBLIC	_glad_glWindowPos2dv
PUBLIC	_glad_glWindowPos2f
PUBLIC	_glad_glWindowPos2fv
PUBLIC	_glad_glWindowPos2i
PUBLIC	_glad_glWindowPos2iv
PUBLIC	_glad_glWindowPos2s
PUBLIC	_glad_glWindowPos2sv
PUBLIC	_glad_glWindowPos3d
PUBLIC	_glad_glWindowPos3dv
PUBLIC	_glad_glWindowPos3f
PUBLIC	_glad_glWindowPos3fv
PUBLIC	_glad_glWindowPos3i
PUBLIC	_glad_glWindowPos3iv
PUBLIC	_glad_glWindowPos3s
PUBLIC	_glad_glWindowPos3sv
PUBLIC	_glad_glBlendColor
PUBLIC	_glad_glBlendEquation
PUBLIC	_GLAD_GL_VERSION_1_5
PUBLIC	_glad_glGenQueries
PUBLIC	_glad_glDeleteQueries
PUBLIC	_glad_glIsQuery
PUBLIC	_glad_glBeginQuery
PUBLIC	_glad_glEndQuery
PUBLIC	_glad_glGetQueryiv
PUBLIC	_glad_glGetQueryObjectiv
PUBLIC	_glad_glGetQueryObjectuiv
PUBLIC	_glad_glBindBuffer
PUBLIC	_glad_glDeleteBuffers
PUBLIC	_glad_glGenBuffers
PUBLIC	_glad_glIsBuffer
PUBLIC	_glad_glBufferData
PUBLIC	_glad_glBufferSubData
PUBLIC	_glad_glGetBufferSubData
PUBLIC	_glad_glMapBuffer
PUBLIC	_glad_glUnmapBuffer
PUBLIC	_glad_glGetBufferParameteriv
PUBLIC	_glad_glGetBufferPointerv
PUBLIC	_GLAD_GL_VERSION_2_0
PUBLIC	_glad_glBlendEquationSeparate
PUBLIC	_glad_glDrawBuffers
PUBLIC	_glad_glStencilOpSeparate
PUBLIC	_glad_glStencilFuncSeparate
PUBLIC	_glad_glStencilMaskSeparate
PUBLIC	_glad_glAttachShader
PUBLIC	_glad_glBindAttribLocation
PUBLIC	_glad_glCompileShader
PUBLIC	_glad_glCreateProgram
PUBLIC	_glad_glCreateShader
PUBLIC	_glad_glDeleteProgram
PUBLIC	_glad_glDeleteShader
PUBLIC	_glad_glDetachShader
PUBLIC	_glad_glDisableVertexAttribArray
PUBLIC	_glad_glEnableVertexAttribArray
PUBLIC	_glad_glGetActiveAttrib
PUBLIC	_glad_glGetActiveUniform
PUBLIC	_glad_glGetAttachedShaders
PUBLIC	_glad_glGetAttribLocation
PUBLIC	_glad_glGetProgramiv
PUBLIC	_glad_glGetProgramInfoLog
PUBLIC	_glad_glGetShaderiv
PUBLIC	_glad_glGetShaderInfoLog
PUBLIC	_glad_glGetShaderSource
PUBLIC	_glad_glGetUniformLocation
PUBLIC	_glad_glGetUniformfv
PUBLIC	_glad_glGetUniformiv
PUBLIC	_glad_glGetVertexAttribdv
PUBLIC	_glad_glGetVertexAttribfv
PUBLIC	_glad_glGetVertexAttribiv
PUBLIC	_glad_glGetVertexAttribPointerv
PUBLIC	_glad_glIsProgram
PUBLIC	_glad_glIsShader
PUBLIC	_glad_glLinkProgram
PUBLIC	_glad_glShaderSource
PUBLIC	_glad_glUseProgram
PUBLIC	_glad_glUniform1f
PUBLIC	_glad_glUniform2f
PUBLIC	_glad_glUniform3f
PUBLIC	_glad_glUniform4f
PUBLIC	_glad_glUniform1i
PUBLIC	_glad_glUniform2i
PUBLIC	_glad_glUniform3i
PUBLIC	_glad_glUniform4i
PUBLIC	_glad_glUniform1fv
PUBLIC	_glad_glUniform2fv
PUBLIC	_glad_glUniform3fv
PUBLIC	_glad_glUniform4fv
PUBLIC	_glad_glUniform1iv
PUBLIC	_glad_glUniform2iv
PUBLIC	_glad_glUniform3iv
PUBLIC	_glad_glUniform4iv
PUBLIC	_glad_glUniformMatrix2fv
PUBLIC	_glad_glUniformMatrix3fv
PUBLIC	_glad_glUniformMatrix4fv
PUBLIC	_glad_glValidateProgram
PUBLIC	_glad_glVertexAttrib1d
PUBLIC	_glad_glVertexAttrib1dv
PUBLIC	_glad_glVertexAttrib1f
PUBLIC	_glad_glVertexAttrib1fv
PUBLIC	_glad_glVertexAttrib1s
PUBLIC	_glad_glVertexAttrib1sv
PUBLIC	_glad_glVertexAttrib2d
PUBLIC	_glad_glVertexAttrib2dv
PUBLIC	_glad_glVertexAttrib2f
PUBLIC	_glad_glVertexAttrib2fv
PUBLIC	_glad_glVertexAttrib2s
PUBLIC	_glad_glVertexAttrib2sv
PUBLIC	_glad_glVertexAttrib3d
PUBLIC	_glad_glVertexAttrib3dv
PUBLIC	_glad_glVertexAttrib3f
PUBLIC	_glad_glVertexAttrib3fv
PUBLIC	_glad_glVertexAttrib3s
PUBLIC	_glad_glVertexAttrib3sv
PUBLIC	_glad_glVertexAttrib4Nbv
PUBLIC	_glad_glVertexAttrib4Niv
PUBLIC	_glad_glVertexAttrib4Nsv
PUBLIC	_glad_glVertexAttrib4Nub
PUBLIC	_glad_glVertexAttrib4Nubv
PUBLIC	_glad_glVertexAttrib4Nuiv
PUBLIC	_glad_glVertexAttrib4Nusv
PUBLIC	_glad_glVertexAttrib4bv
PUBLIC	_glad_glVertexAttrib4d
PUBLIC	_glad_glVertexAttrib4dv
PUBLIC	_glad_glVertexAttrib4f
PUBLIC	_glad_glVertexAttrib4fv
PUBLIC	_glad_glVertexAttrib4iv
PUBLIC	_glad_glVertexAttrib4s
PUBLIC	_glad_glVertexAttrib4sv
PUBLIC	_glad_glVertexAttrib4ubv
PUBLIC	_glad_glVertexAttrib4uiv
PUBLIC	_glad_glVertexAttrib4usv
PUBLIC	_glad_glVertexAttribPointer
PUBLIC	_GLAD_GL_VERSION_2_1
PUBLIC	_glad_glUniformMatrix2x3fv
PUBLIC	_glad_glUniformMatrix3x2fv
PUBLIC	_glad_glUniformMatrix2x4fv
PUBLIC	_glad_glUniformMatrix4x2fv
PUBLIC	_glad_glUniformMatrix3x4fv
PUBLIC	_glad_glUniformMatrix4x3fv
PUBLIC	_GLAD_GL_VERSION_3_0
PUBLIC	_glad_glColorMaski
PUBLIC	_glad_glGetBooleani_v
PUBLIC	_glad_glGetIntegeri_v
PUBLIC	_glad_glEnablei
PUBLIC	_glad_glDisablei
PUBLIC	_glad_glIsEnabledi
PUBLIC	_glad_glBeginTransformFeedback
PUBLIC	_glad_glEndTransformFeedback
PUBLIC	_glad_glBindBufferRange
PUBLIC	_glad_glBindBufferBase
PUBLIC	_glad_glTransformFeedbackVaryings
PUBLIC	_glad_glGetTransformFeedbackVarying
PUBLIC	_glad_glClampColor
PUBLIC	_glad_glBeginConditionalRender
PUBLIC	_glad_glEndConditionalRender
PUBLIC	_glad_glVertexAttribIPointer
PUBLIC	_glad_glGetVertexAttribIiv
PUBLIC	_glad_glGetVertexAttribIuiv
PUBLIC	_glad_glVertexAttribI1i
PUBLIC	_glad_glVertexAttribI2i
PUBLIC	_glad_glVertexAttribI3i
PUBLIC	_glad_glVertexAttribI4i
PUBLIC	_glad_glVertexAttribI1ui
PUBLIC	_glad_glVertexAttribI2ui
PUBLIC	_glad_glVertexAttribI3ui
PUBLIC	_glad_glVertexAttribI4ui
PUBLIC	_glad_glVertexAttribI1iv
PUBLIC	_glad_glVertexAttribI2iv
PUBLIC	_glad_glVertexAttribI3iv
PUBLIC	_glad_glVertexAttribI4iv
PUBLIC	_glad_glVertexAttribI1uiv
PUBLIC	_glad_glVertexAttribI2uiv
PUBLIC	_glad_glVertexAttribI3uiv
PUBLIC	_glad_glVertexAttribI4uiv
PUBLIC	_glad_glVertexAttribI4bv
PUBLIC	_glad_glVertexAttribI4sv
PUBLIC	_glad_glVertexAttribI4ubv
PUBLIC	_glad_glVertexAttribI4usv
PUBLIC	_glad_glGetUniformuiv
PUBLIC	_glad_glBindFragDataLocation
PUBLIC	_glad_glGetFragDataLocation
PUBLIC	_glad_glUniform1ui
PUBLIC	_glad_glUniform2ui
PUBLIC	_glad_glUniform3ui
PUBLIC	_glad_glUniform4ui
PUBLIC	_glad_glUniform1uiv
PUBLIC	_glad_glUniform2uiv
PUBLIC	_glad_glUniform3uiv
PUBLIC	_glad_glUniform4uiv
PUBLIC	_glad_glTexParameterIiv
PUBLIC	_glad_glTexParameterIuiv
PUBLIC	_glad_glGetTexParameterIiv
PUBLIC	_glad_glGetTexParameterIuiv
PUBLIC	_glad_glClearBufferiv
PUBLIC	_glad_glClearBufferuiv
PUBLIC	_glad_glClearBufferfv
PUBLIC	_glad_glClearBufferfi
PUBLIC	_glad_glGetStringi
PUBLIC	_glad_glIsRenderbuffer
PUBLIC	_glad_glBindRenderbuffer
PUBLIC	_glad_glDeleteRenderbuffers
PUBLIC	_glad_glGenRenderbuffers
PUBLIC	_glad_glRenderbufferStorage
PUBLIC	_glad_glGetRenderbufferParameteriv
PUBLIC	_glad_glIsFramebuffer
PUBLIC	_glad_glBindFramebuffer
PUBLIC	_glad_glDeleteFramebuffers
PUBLIC	_glad_glGenFramebuffers
PUBLIC	_glad_glCheckFramebufferStatus
PUBLIC	_glad_glFramebufferTexture1D
PUBLIC	_glad_glFramebufferTexture2D
PUBLIC	_glad_glFramebufferTexture3D
PUBLIC	_glad_glFramebufferRenderbuffer
PUBLIC	_glad_glGetFramebufferAttachmentParameteriv
PUBLIC	_glad_glGenerateMipmap
PUBLIC	_glad_glBlitFramebuffer
PUBLIC	_glad_glRenderbufferStorageMultisample
PUBLIC	_glad_glFramebufferTextureLayer
PUBLIC	_glad_glMapBufferRange
PUBLIC	_glad_glFlushMappedBufferRange
PUBLIC	_glad_glBindVertexArray
PUBLIC	_glad_glDeleteVertexArrays
PUBLIC	_glad_glGenVertexArrays
PUBLIC	_glad_glIsVertexArray
PUBLIC	_GLAD_GL_VERSION_3_1
PUBLIC	_glad_glDrawArraysInstanced
PUBLIC	_glad_glDrawElementsInstanced
PUBLIC	_glad_glTexBuffer
PUBLIC	_glad_glPrimitiveRestartIndex
PUBLIC	_glad_glCopyBufferSubData
PUBLIC	_glad_glGetUniformIndices
PUBLIC	_glad_glGetActiveUniformsiv
PUBLIC	_glad_glGetActiveUniformName
PUBLIC	_glad_glGetUniformBlockIndex
PUBLIC	_glad_glGetActiveUniformBlockiv
PUBLIC	_glad_glGetActiveUniformBlockName
PUBLIC	_glad_glUniformBlockBinding
PUBLIC	_GLAD_GL_VERSION_3_2
PUBLIC	_glad_glDrawElementsBaseVertex
PUBLIC	_glad_glDrawRangeElementsBaseVertex
PUBLIC	_glad_glDrawElementsInstancedBaseVertex
PUBLIC	_glad_glMultiDrawElementsBaseVertex
PUBLIC	_glad_glProvokingVertex
PUBLIC	_glad_glFenceSync
PUBLIC	_glad_glIsSync
PUBLIC	_glad_glDeleteSync
PUBLIC	_glad_glClientWaitSync
PUBLIC	_glad_glWaitSync
PUBLIC	_glad_glGetInteger64v
PUBLIC	_glad_glGetSynciv
PUBLIC	_glad_glGetInteger64i_v
PUBLIC	_glad_glGetBufferParameteri64v
PUBLIC	_glad_glFramebufferTexture
PUBLIC	_glad_glTexImage2DMultisample
PUBLIC	_glad_glTexImage3DMultisample
PUBLIC	_glad_glGetMultisamplefv
PUBLIC	_glad_glSampleMaski
PUBLIC	_GLAD_GL_VERSION_3_3
PUBLIC	_glad_glBindFragDataLocationIndexed
PUBLIC	_glad_glGetFragDataIndex
PUBLIC	_glad_glGenSamplers
PUBLIC	_glad_glDeleteSamplers
PUBLIC	_glad_glIsSampler
PUBLIC	_glad_glBindSampler
PUBLIC	_glad_glSamplerParameteri
PUBLIC	_glad_glSamplerParameteriv
PUBLIC	_glad_glSamplerParameterf
PUBLIC	_glad_glSamplerParameterfv
PUBLIC	_glad_glSamplerParameterIiv
PUBLIC	_glad_glSamplerParameterIuiv
PUBLIC	_glad_glGetSamplerParameteriv
PUBLIC	_glad_glGetSamplerParameterIiv
PUBLIC	_glad_glGetSamplerParameterfv
PUBLIC	_glad_glGetSamplerParameterIuiv
PUBLIC	_glad_glQueryCounter
PUBLIC	_glad_glGetQueryObjecti64v
PUBLIC	_glad_glGetQueryObjectui64v
PUBLIC	_glad_glVertexAttribDivisor
PUBLIC	_glad_glVertexAttribP1ui
PUBLIC	_glad_glVertexAttribP1uiv
PUBLIC	_glad_glVertexAttribP2ui
PUBLIC	_glad_glVertexAttribP2uiv
PUBLIC	_glad_glVertexAttribP3ui
PUBLIC	_glad_glVertexAttribP3uiv
PUBLIC	_glad_glVertexAttribP4ui
PUBLIC	_glad_glVertexAttribP4uiv
PUBLIC	_glad_glVertexP2ui
PUBLIC	_glad_glVertexP2uiv
PUBLIC	_glad_glVertexP3ui
PUBLIC	_glad_glVertexP3uiv
PUBLIC	_glad_glVertexP4ui
PUBLIC	_glad_glVertexP4uiv
PUBLIC	_glad_glTexCoordP1ui
PUBLIC	_glad_glTexCoordP1uiv
PUBLIC	_glad_glTexCoordP2ui
PUBLIC	_glad_glTexCoordP2uiv
PUBLIC	_glad_glTexCoordP3ui
PUBLIC	_glad_glTexCoordP3uiv
PUBLIC	_glad_glTexCoordP4ui
PUBLIC	_glad_glTexCoordP4uiv
PUBLIC	_glad_glMultiTexCoordP1ui
PUBLIC	_glad_glMultiTexCoordP1uiv
PUBLIC	_glad_glMultiTexCoordP2ui
PUBLIC	_glad_glMultiTexCoordP2uiv
PUBLIC	_glad_glMultiTexCoordP3ui
PUBLIC	_glad_glMultiTexCoordP3uiv
PUBLIC	_glad_glMultiTexCoordP4ui
PUBLIC	_glad_glMultiTexCoordP4uiv
PUBLIC	_glad_glNormalP3ui
PUBLIC	_glad_glNormalP3uiv
PUBLIC	_glad_glColorP3ui
PUBLIC	_glad_glColorP3uiv
PUBLIC	_glad_glColorP4ui
PUBLIC	_glad_glColorP4uiv
PUBLIC	_glad_glSecondaryColorP3ui
PUBLIC	_glad_glSecondaryColorP3uiv
_BSS	SEGMENT
_GLVersion DQ	01H DUP (?)
_GLAD_GL_VERSION_1_0 DD 01H DUP (?)
_glad_glCullFace DD 01H DUP (?)
_glad_glFrontFace DD 01H DUP (?)
_glad_glHint DD	01H DUP (?)
_glad_glLineWidth DD 01H DUP (?)
_glad_glPointSize DD 01H DUP (?)
_glad_glPolygonMode DD 01H DUP (?)
_glad_glScissor DD 01H DUP (?)
_glad_glTexParameterf DD 01H DUP (?)
_glad_glTexParameterfv DD 01H DUP (?)
_glad_glTexParameteri DD 01H DUP (?)
_glad_glTexParameteriv DD 01H DUP (?)
_glad_glTexImage1D DD 01H DUP (?)
_glad_glTexImage2D DD 01H DUP (?)
_glad_glDrawBuffer DD 01H DUP (?)
_glad_glClear DD 01H DUP (?)
_glad_glClearColor DD 01H DUP (?)
_glad_glClearStencil DD 01H DUP (?)
_glad_glClearDepth DD 01H DUP (?)
_glad_glStencilMask DD 01H DUP (?)
_glad_glColorMask DD 01H DUP (?)
_glad_glDepthMask DD 01H DUP (?)
_glad_glDisable DD 01H DUP (?)
_glad_glEnable DD 01H DUP (?)
_glad_glFinish DD 01H DUP (?)
_glad_glFlush DD 01H DUP (?)
_glad_glBlendFunc DD 01H DUP (?)
_glad_glLogicOp DD 01H DUP (?)
_glad_glStencilFunc DD 01H DUP (?)
_glad_glStencilOp DD 01H DUP (?)
_glad_glDepthFunc DD 01H DUP (?)
_glad_glPixelStoref DD 01H DUP (?)
_glad_glPixelStorei DD 01H DUP (?)
_glad_glReadBuffer DD 01H DUP (?)
_glad_glReadPixels DD 01H DUP (?)
_glad_glGetBooleanv DD 01H DUP (?)
_glad_glGetDoublev DD 01H DUP (?)
_glad_glGetError DD 01H DUP (?)
_glad_glGetFloatv DD 01H DUP (?)
_glad_glGetIntegerv DD 01H DUP (?)
_glad_glGetString DD 01H DUP (?)
_glad_glGetTexImage DD 01H DUP (?)
_glad_glGetTexParameterfv DD 01H DUP (?)
_glad_glGetTexParameteriv DD 01H DUP (?)
_glad_glGetTexLevelParameterfv DD 01H DUP (?)
_glad_glGetTexLevelParameteriv DD 01H DUP (?)
_glad_glIsEnabled DD 01H DUP (?)
_glad_glDepthRange DD 01H DUP (?)
_glad_glViewport DD 01H DUP (?)
_glad_glNewList DD 01H DUP (?)
_glad_glEndList DD 01H DUP (?)
_glad_glCallList DD 01H DUP (?)
_glad_glCallLists DD 01H DUP (?)
_glad_glDeleteLists DD 01H DUP (?)
_glad_glGenLists DD 01H DUP (?)
_glad_glListBase DD 01H DUP (?)
_glad_glBegin DD 01H DUP (?)
_glad_glBitmap DD 01H DUP (?)
_glad_glColor3b DD 01H DUP (?)
_glad_glColor3bv DD 01H DUP (?)
_glad_glColor3d DD 01H DUP (?)
_glad_glColor3dv DD 01H DUP (?)
_glad_glColor3f DD 01H DUP (?)
_glad_glColor3fv DD 01H DUP (?)
_glad_glColor3i DD 01H DUP (?)
_glad_glColor3iv DD 01H DUP (?)
_glad_glColor3s DD 01H DUP (?)
_glad_glColor3sv DD 01H DUP (?)
_glad_glColor3ub DD 01H DUP (?)
_glad_glColor3ubv DD 01H DUP (?)
_glad_glColor3ui DD 01H DUP (?)
_glad_glColor3uiv DD 01H DUP (?)
_glad_glColor3us DD 01H DUP (?)
_glad_glColor3usv DD 01H DUP (?)
_glad_glColor4b DD 01H DUP (?)
_glad_glColor4bv DD 01H DUP (?)
_glad_glColor4d DD 01H DUP (?)
_glad_glColor4dv DD 01H DUP (?)
_glad_glColor4f DD 01H DUP (?)
_glad_glColor4fv DD 01H DUP (?)
_glad_glColor4i DD 01H DUP (?)
_glad_glColor4iv DD 01H DUP (?)
_glad_glColor4s DD 01H DUP (?)
_glad_glColor4sv DD 01H DUP (?)
_glad_glColor4ub DD 01H DUP (?)
_glad_glColor4ubv DD 01H DUP (?)
_glad_glColor4ui DD 01H DUP (?)
_glad_glColor4uiv DD 01H DUP (?)
_glad_glColor4us DD 01H DUP (?)
_glad_glColor4usv DD 01H DUP (?)
_glad_glEdgeFlag DD 01H DUP (?)
_glad_glEdgeFlagv DD 01H DUP (?)
_glad_glEnd DD	01H DUP (?)
_glad_glIndexd DD 01H DUP (?)
_glad_glIndexdv DD 01H DUP (?)
_glad_glIndexf DD 01H DUP (?)
_glad_glIndexfv DD 01H DUP (?)
_glad_glIndexi DD 01H DUP (?)
_glad_glIndexiv DD 01H DUP (?)
_glad_glIndexs DD 01H DUP (?)
_glad_glIndexsv DD 01H DUP (?)
_glad_glNormal3b DD 01H DUP (?)
_glad_glNormal3bv DD 01H DUP (?)
_glad_glNormal3d DD 01H DUP (?)
_glad_glNormal3dv DD 01H DUP (?)
_glad_glNormal3f DD 01H DUP (?)
_glad_glNormal3fv DD 01H DUP (?)
_glad_glNormal3i DD 01H DUP (?)
_glad_glNormal3iv DD 01H DUP (?)
_glad_glNormal3s DD 01H DUP (?)
_glad_glNormal3sv DD 01H DUP (?)
_glad_glRasterPos2d DD 01H DUP (?)
_glad_glRasterPos2dv DD 01H DUP (?)
_glad_glRasterPos2f DD 01H DUP (?)
_glad_glRasterPos2fv DD 01H DUP (?)
_glad_glRasterPos2i DD 01H DUP (?)
_glad_glRasterPos2iv DD 01H DUP (?)
_glad_glRasterPos2s DD 01H DUP (?)
_glad_glRasterPos2sv DD 01H DUP (?)
_glad_glRasterPos3d DD 01H DUP (?)
_glad_glRasterPos3dv DD 01H DUP (?)
_glad_glRasterPos3f DD 01H DUP (?)
_glad_glRasterPos3fv DD 01H DUP (?)
_glad_glRasterPos3i DD 01H DUP (?)
_glad_glRasterPos3iv DD 01H DUP (?)
_glad_glRasterPos3s DD 01H DUP (?)
_glad_glRasterPos3sv DD 01H DUP (?)
_glad_glRasterPos4d DD 01H DUP (?)
_glad_glRasterPos4dv DD 01H DUP (?)
_glad_glRasterPos4f DD 01H DUP (?)
_glad_glRasterPos4fv DD 01H DUP (?)
_glad_glRasterPos4i DD 01H DUP (?)
_glad_glRasterPos4iv DD 01H DUP (?)
_glad_glRasterPos4s DD 01H DUP (?)
_glad_glRasterPos4sv DD 01H DUP (?)
_glad_glRectd DD 01H DUP (?)
_glad_glRectdv DD 01H DUP (?)
_glad_glRectf DD 01H DUP (?)
_glad_glRectfv DD 01H DUP (?)
_glad_glRecti DD 01H DUP (?)
_glad_glRectiv DD 01H DUP (?)
_glad_glRects DD 01H DUP (?)
_glad_glRectsv DD 01H DUP (?)
_glad_glTexCoord1d DD 01H DUP (?)
_glad_glTexCoord1dv DD 01H DUP (?)
_glad_glTexCoord1f DD 01H DUP (?)
_glad_glTexCoord1fv DD 01H DUP (?)
_glad_glTexCoord1i DD 01H DUP (?)
_glad_glTexCoord1iv DD 01H DUP (?)
_glad_glTexCoord1s DD 01H DUP (?)
_glad_glTexCoord1sv DD 01H DUP (?)
_glad_glTexCoord2d DD 01H DUP (?)
_glad_glTexCoord2dv DD 01H DUP (?)
_glad_glTexCoord2f DD 01H DUP (?)
_glad_glTexCoord2fv DD 01H DUP (?)
_glad_glTexCoord2i DD 01H DUP (?)
_glad_glTexCoord2iv DD 01H DUP (?)
_glad_glTexCoord2s DD 01H DUP (?)
_glad_glTexCoord2sv DD 01H DUP (?)
_glad_glTexCoord3d DD 01H DUP (?)
_glad_glTexCoord3dv DD 01H DUP (?)
_glad_glTexCoord3f DD 01H DUP (?)
_glad_glTexCoord3fv DD 01H DUP (?)
_glad_glTexCoord3i DD 01H DUP (?)
_glad_glTexCoord3iv DD 01H DUP (?)
_glad_glTexCoord3s DD 01H DUP (?)
_glad_glTexCoord3sv DD 01H DUP (?)
_glad_glTexCoord4d DD 01H DUP (?)
_glad_glTexCoord4dv DD 01H DUP (?)
_glad_glTexCoord4f DD 01H DUP (?)
_glad_glTexCoord4fv DD 01H DUP (?)
_glad_glTexCoord4i DD 01H DUP (?)
_glad_glTexCoord4iv DD 01H DUP (?)
_glad_glTexCoord4s DD 01H DUP (?)
_glad_glTexCoord4sv DD 01H DUP (?)
_glad_glVertex2d DD 01H DUP (?)
_glad_glVertex2dv DD 01H DUP (?)
_glad_glVertex2f DD 01H DUP (?)
_glad_glVertex2fv DD 01H DUP (?)
_glad_glVertex2i DD 01H DUP (?)
_glad_glVertex2iv DD 01H DUP (?)
_glad_glVertex2s DD 01H DUP (?)
_glad_glVertex2sv DD 01H DUP (?)
_glad_glVertex3d DD 01H DUP (?)
_glad_glVertex3dv DD 01H DUP (?)
_glad_glVertex3f DD 01H DUP (?)
_glad_glVertex3fv DD 01H DUP (?)
_glad_glVertex3i DD 01H DUP (?)
_glad_glVertex3iv DD 01H DUP (?)
_glad_glVertex3s DD 01H DUP (?)
_glad_glVertex3sv DD 01H DUP (?)
_glad_glVertex4d DD 01H DUP (?)
_glad_glVertex4dv DD 01H DUP (?)
_glad_glVertex4f DD 01H DUP (?)
_glad_glVertex4fv DD 01H DUP (?)
_glad_glVertex4i DD 01H DUP (?)
_glad_glVertex4iv DD 01H DUP (?)
_glad_glVertex4s DD 01H DUP (?)
_glad_glVertex4sv DD 01H DUP (?)
_glad_glClipPlane DD 01H DUP (?)
_glad_glColorMaterial DD 01H DUP (?)
_glad_glFogf DD	01H DUP (?)
_glad_glFogfv DD 01H DUP (?)
_glad_glFogi DD	01H DUP (?)
_glad_glFogiv DD 01H DUP (?)
_glad_glLightf DD 01H DUP (?)
_glad_glLightfv DD 01H DUP (?)
_glad_glLighti DD 01H DUP (?)
_glad_glLightiv DD 01H DUP (?)
_glad_glLightModelf DD 01H DUP (?)
_glad_glLightModelfv DD 01H DUP (?)
_glad_glLightModeli DD 01H DUP (?)
_glad_glLightModeliv DD 01H DUP (?)
_glad_glLineStipple DD 01H DUP (?)
_glad_glMaterialf DD 01H DUP (?)
_glad_glMaterialfv DD 01H DUP (?)
_glad_glMateriali DD 01H DUP (?)
_glad_glMaterialiv DD 01H DUP (?)
_glad_glPolygonStipple DD 01H DUP (?)
_glad_glShadeModel DD 01H DUP (?)
_glad_glTexEnvf DD 01H DUP (?)
_glad_glTexEnvfv DD 01H DUP (?)
_glad_glTexEnvi DD 01H DUP (?)
_glad_glTexEnviv DD 01H DUP (?)
_glad_glTexGend DD 01H DUP (?)
_glad_glTexGendv DD 01H DUP (?)
_glad_glTexGenf DD 01H DUP (?)
_glad_glTexGenfv DD 01H DUP (?)
_glad_glTexGeni DD 01H DUP (?)
_glad_glTexGeniv DD 01H DUP (?)
_glad_glFeedbackBuffer DD 01H DUP (?)
_glad_glSelectBuffer DD 01H DUP (?)
_glad_glRenderMode DD 01H DUP (?)
_glad_glInitNames DD 01H DUP (?)
_glad_glLoadName DD 01H DUP (?)
_glad_glPassThrough DD 01H DUP (?)
_glad_glPopName DD 01H DUP (?)
_glad_glPushName DD 01H DUP (?)
_glad_glClearAccum DD 01H DUP (?)
_glad_glClearIndex DD 01H DUP (?)
_glad_glIndexMask DD 01H DUP (?)
_glad_glAccum DD 01H DUP (?)
_glad_glPopAttrib DD 01H DUP (?)
_glad_glPushAttrib DD 01H DUP (?)
_glad_glMap1d DD 01H DUP (?)
_glad_glMap1f DD 01H DUP (?)
_glad_glMap2d DD 01H DUP (?)
_glad_glMap2f DD 01H DUP (?)
_glad_glMapGrid1d DD 01H DUP (?)
_glad_glMapGrid1f DD 01H DUP (?)
_glad_glMapGrid2d DD 01H DUP (?)
_glad_glMapGrid2f DD 01H DUP (?)
_glad_glEvalCoord1d DD 01H DUP (?)
_glad_glEvalCoord1dv DD 01H DUP (?)
_glad_glEvalCoord1f DD 01H DUP (?)
_glad_glEvalCoord1fv DD 01H DUP (?)
_glad_glEvalCoord2d DD 01H DUP (?)
_glad_glEvalCoord2dv DD 01H DUP (?)
_glad_glEvalCoord2f DD 01H DUP (?)
_glad_glEvalCoord2fv DD 01H DUP (?)
_glad_glEvalMesh1 DD 01H DUP (?)
_glad_glEvalPoint1 DD 01H DUP (?)
_glad_glEvalMesh2 DD 01H DUP (?)
_glad_glEvalPoint2 DD 01H DUP (?)
_glad_glAlphaFunc DD 01H DUP (?)
_glad_glPixelZoom DD 01H DUP (?)
_glad_glPixelTransferf DD 01H DUP (?)
_glad_glPixelTransferi DD 01H DUP (?)
_glad_glPixelMapfv DD 01H DUP (?)
_glad_glPixelMapuiv DD 01H DUP (?)
_glad_glPixelMapusv DD 01H DUP (?)
_glad_glCopyPixels DD 01H DUP (?)
_glad_glDrawPixels DD 01H DUP (?)
_glad_glGetClipPlane DD 01H DUP (?)
_glad_glGetLightfv DD 01H DUP (?)
_glad_glGetLightiv DD 01H DUP (?)
_glad_glGetMapdv DD 01H DUP (?)
_glad_glGetMapfv DD 01H DUP (?)
_glad_glGetMapiv DD 01H DUP (?)
_glad_glGetMaterialfv DD 01H DUP (?)
_glad_glGetMaterialiv DD 01H DUP (?)
_glad_glGetPixelMapfv DD 01H DUP (?)
_glad_glGetPixelMapuiv DD 01H DUP (?)
_glad_glGetPixelMapusv DD 01H DUP (?)
_glad_glGetPolygonStipple DD 01H DUP (?)
_glad_glGetTexEnvfv DD 01H DUP (?)
_glad_glGetTexEnviv DD 01H DUP (?)
_glad_glGetTexGendv DD 01H DUP (?)
_glad_glGetTexGenfv DD 01H DUP (?)
_glad_glGetTexGeniv DD 01H DUP (?)
_glad_glIsList DD 01H DUP (?)
_glad_glFrustum DD 01H DUP (?)
_glad_glLoadIdentity DD 01H DUP (?)
_glad_glLoadMatrixf DD 01H DUP (?)
_glad_glLoadMatrixd DD 01H DUP (?)
_glad_glMatrixMode DD 01H DUP (?)
_glad_glMultMatrixf DD 01H DUP (?)
_glad_glMultMatrixd DD 01H DUP (?)
_glad_glOrtho DD 01H DUP (?)
_glad_glPopMatrix DD 01H DUP (?)
_glad_glPushMatrix DD 01H DUP (?)
_glad_glRotated DD 01H DUP (?)
_glad_glRotatef DD 01H DUP (?)
_glad_glScaled DD 01H DUP (?)
_glad_glScalef DD 01H DUP (?)
_glad_glTranslated DD 01H DUP (?)
_glad_glTranslatef DD 01H DUP (?)
_GLAD_GL_VERSION_1_1 DD 01H DUP (?)
_glad_glDrawArrays DD 01H DUP (?)
_glad_glDrawElements DD 01H DUP (?)
_glad_glGetPointerv DD 01H DUP (?)
_glad_glPolygonOffset DD 01H DUP (?)
_glad_glCopyTexImage1D DD 01H DUP (?)
_glad_glCopyTexImage2D DD 01H DUP (?)
_glad_glCopyTexSubImage1D DD 01H DUP (?)
_glad_glCopyTexSubImage2D DD 01H DUP (?)
_glad_glTexSubImage1D DD 01H DUP (?)
_glad_glTexSubImage2D DD 01H DUP (?)
_glad_glBindTexture DD 01H DUP (?)
_glad_glDeleteTextures DD 01H DUP (?)
_glad_glGenTextures DD 01H DUP (?)
_glad_glIsTexture DD 01H DUP (?)
_glad_glArrayElement DD 01H DUP (?)
_glad_glColorPointer DD 01H DUP (?)
_glad_glDisableClientState DD 01H DUP (?)
_glad_glEdgeFlagPointer DD 01H DUP (?)
_glad_glEnableClientState DD 01H DUP (?)
_glad_glIndexPointer DD 01H DUP (?)
_glad_glInterleavedArrays DD 01H DUP (?)
_glad_glNormalPointer DD 01H DUP (?)
_glad_glTexCoordPointer DD 01H DUP (?)
_glad_glVertexPointer DD 01H DUP (?)
_glad_glAreTexturesResident DD 01H DUP (?)
_glad_glPrioritizeTextures DD 01H DUP (?)
_glad_glIndexub DD 01H DUP (?)
_glad_glIndexubv DD 01H DUP (?)
_glad_glPopClientAttrib DD 01H DUP (?)
_glad_glPushClientAttrib DD 01H DUP (?)
_GLAD_GL_VERSION_1_2 DD 01H DUP (?)
_glad_glDrawRangeElements DD 01H DUP (?)
_glad_glTexImage3D DD 01H DUP (?)
_glad_glTexSubImage3D DD 01H DUP (?)
_glad_glCopyTexSubImage3D DD 01H DUP (?)
_GLAD_GL_VERSION_1_3 DD 01H DUP (?)
_glad_glActiveTexture DD 01H DUP (?)
_glad_glSampleCoverage DD 01H DUP (?)
_glad_glCompressedTexImage3D DD 01H DUP (?)
_glad_glCompressedTexImage2D DD 01H DUP (?)
_glad_glCompressedTexImage1D DD 01H DUP (?)
_glad_glCompressedTexSubImage3D DD 01H DUP (?)
_glad_glCompressedTexSubImage2D DD 01H DUP (?)
_glad_glCompressedTexSubImage1D DD 01H DUP (?)
_glad_glGetCompressedTexImage DD 01H DUP (?)
_glad_glClientActiveTexture DD 01H DUP (?)
_glad_glMultiTexCoord1d DD 01H DUP (?)
_glad_glMultiTexCoord1dv DD 01H DUP (?)
_glad_glMultiTexCoord1f DD 01H DUP (?)
_glad_glMultiTexCoord1fv DD 01H DUP (?)
_glad_glMultiTexCoord1i DD 01H DUP (?)
_glad_glMultiTexCoord1iv DD 01H DUP (?)
_glad_glMultiTexCoord1s DD 01H DUP (?)
_glad_glMultiTexCoord1sv DD 01H DUP (?)
_glad_glMultiTexCoord2d DD 01H DUP (?)
_glad_glMultiTexCoord2dv DD 01H DUP (?)
_glad_glMultiTexCoord2f DD 01H DUP (?)
_glad_glMultiTexCoord2fv DD 01H DUP (?)
_glad_glMultiTexCoord2i DD 01H DUP (?)
_glad_glMultiTexCoord2iv DD 01H DUP (?)
_glad_glMultiTexCoord2s DD 01H DUP (?)
_glad_glMultiTexCoord2sv DD 01H DUP (?)
_glad_glMultiTexCoord3d DD 01H DUP (?)
_glad_glMultiTexCoord3dv DD 01H DUP (?)
_glad_glMultiTexCoord3f DD 01H DUP (?)
_glad_glMultiTexCoord3fv DD 01H DUP (?)
_glad_glMultiTexCoord3i DD 01H DUP (?)
_glad_glMultiTexCoord3iv DD 01H DUP (?)
_glad_glMultiTexCoord3s DD 01H DUP (?)
_glad_glMultiTexCoord3sv DD 01H DUP (?)
_glad_glMultiTexCoord4d DD 01H DUP (?)
_glad_glMultiTexCoord4dv DD 01H DUP (?)
_glad_glMultiTexCoord4f DD 01H DUP (?)
_glad_glMultiTexCoord4fv DD 01H DUP (?)
_glad_glMultiTexCoord4i DD 01H DUP (?)
_glad_glMultiTexCoord4iv DD 01H DUP (?)
_glad_glMultiTexCoord4s DD 01H DUP (?)
_glad_glMultiTexCoord4sv DD 01H DUP (?)
_glad_glLoadTransposeMatrixf DD 01H DUP (?)
_glad_glLoadTransposeMatrixd DD 01H DUP (?)
_glad_glMultTransposeMatrixf DD 01H DUP (?)
_glad_glMultTransposeMatrixd DD 01H DUP (?)
_GLAD_GL_VERSION_1_4 DD 01H DUP (?)
_glad_glBlendFuncSeparate DD 01H DUP (?)
_glad_glMultiDrawArrays DD 01H DUP (?)
_glad_glMultiDrawElements DD 01H DUP (?)
_glad_glPointParameterf DD 01H DUP (?)
_glad_glPointParameterfv DD 01H DUP (?)
_glad_glPointParameteri DD 01H DUP (?)
_glad_glPointParameteriv DD 01H DUP (?)
_glad_glFogCoordf DD 01H DUP (?)
_glad_glFogCoordfv DD 01H DUP (?)
_glad_glFogCoordd DD 01H DUP (?)
_glad_glFogCoorddv DD 01H DUP (?)
_glad_glFogCoordPointer DD 01H DUP (?)
_glad_glSecondaryColor3b DD 01H DUP (?)
_glad_glSecondaryColor3bv DD 01H DUP (?)
_glad_glSecondaryColor3d DD 01H DUP (?)
_glad_glSecondaryColor3dv DD 01H DUP (?)
_glad_glSecondaryColor3f DD 01H DUP (?)
_glad_glSecondaryColor3fv DD 01H DUP (?)
_glad_glSecondaryColor3i DD 01H DUP (?)
_glad_glSecondaryColor3iv DD 01H DUP (?)
_glad_glSecondaryColor3s DD 01H DUP (?)
_glad_glSecondaryColor3sv DD 01H DUP (?)
_glad_glSecondaryColor3ub DD 01H DUP (?)
_glad_glSecondaryColor3ubv DD 01H DUP (?)
_glad_glSecondaryColor3ui DD 01H DUP (?)
_glad_glSecondaryColor3uiv DD 01H DUP (?)
_glad_glSecondaryColor3us DD 01H DUP (?)
_glad_glSecondaryColor3usv DD 01H DUP (?)
_glad_glSecondaryColorPointer DD 01H DUP (?)
_glad_glWindowPos2d DD 01H DUP (?)
_glad_glWindowPos2dv DD 01H DUP (?)
_glad_glWindowPos2f DD 01H DUP (?)
_glad_glWindowPos2fv DD 01H DUP (?)
_glad_glWindowPos2i DD 01H DUP (?)
_glad_glWindowPos2iv DD 01H DUP (?)
_glad_glWindowPos2s DD 01H DUP (?)
_glad_glWindowPos2sv DD 01H DUP (?)
_glad_glWindowPos3d DD 01H DUP (?)
_glad_glWindowPos3dv DD 01H DUP (?)
_glad_glWindowPos3f DD 01H DUP (?)
_glad_glWindowPos3fv DD 01H DUP (?)
_glad_glWindowPos3i DD 01H DUP (?)
_glad_glWindowPos3iv DD 01H DUP (?)
_glad_glWindowPos3s DD 01H DUP (?)
_glad_glWindowPos3sv DD 01H DUP (?)
_glad_glBlendColor DD 01H DUP (?)
_glad_glBlendEquation DD 01H DUP (?)
_GLAD_GL_VERSION_1_5 DD 01H DUP (?)
_glad_glGenQueries DD 01H DUP (?)
_glad_glDeleteQueries DD 01H DUP (?)
_glad_glIsQuery DD 01H DUP (?)
_glad_glBeginQuery DD 01H DUP (?)
_glad_glEndQuery DD 01H DUP (?)
_glad_glGetQueryiv DD 01H DUP (?)
_glad_glGetQueryObjectiv DD 01H DUP (?)
_glad_glGetQueryObjectuiv DD 01H DUP (?)
_glad_glBindBuffer DD 01H DUP (?)
_glad_glDeleteBuffers DD 01H DUP (?)
_glad_glGenBuffers DD 01H DUP (?)
_glad_glIsBuffer DD 01H DUP (?)
_glad_glBufferData DD 01H DUP (?)
_glad_glBufferSubData DD 01H DUP (?)
_glad_glGetBufferSubData DD 01H DUP (?)
_glad_glMapBuffer DD 01H DUP (?)
_glad_glUnmapBuffer DD 01H DUP (?)
_glad_glGetBufferParameteriv DD 01H DUP (?)
_glad_glGetBufferPointerv DD 01H DUP (?)
_GLAD_GL_VERSION_2_0 DD 01H DUP (?)
_glad_glBlendEquationSeparate DD 01H DUP (?)
_glad_glDrawBuffers DD 01H DUP (?)
_glad_glStencilOpSeparate DD 01H DUP (?)
_glad_glStencilFuncSeparate DD 01H DUP (?)
_glad_glStencilMaskSeparate DD 01H DUP (?)
_glad_glAttachShader DD 01H DUP (?)
_glad_glBindAttribLocation DD 01H DUP (?)
_glad_glCompileShader DD 01H DUP (?)
_glad_glCreateProgram DD 01H DUP (?)
_glad_glCreateShader DD 01H DUP (?)
_glad_glDeleteProgram DD 01H DUP (?)
_glad_glDeleteShader DD 01H DUP (?)
_glad_glDetachShader DD 01H DUP (?)
_glad_glDisableVertexAttribArray DD 01H DUP (?)
_glad_glEnableVertexAttribArray DD 01H DUP (?)
_glad_glGetActiveAttrib DD 01H DUP (?)
_glad_glGetActiveUniform DD 01H DUP (?)
_glad_glGetAttachedShaders DD 01H DUP (?)
_glad_glGetAttribLocation DD 01H DUP (?)
_glad_glGetProgramiv DD 01H DUP (?)
_glad_glGetProgramInfoLog DD 01H DUP (?)
_glad_glGetShaderiv DD 01H DUP (?)
_glad_glGetShaderInfoLog DD 01H DUP (?)
_glad_glGetShaderSource DD 01H DUP (?)
_glad_glGetUniformLocation DD 01H DUP (?)
_glad_glGetUniformfv DD 01H DUP (?)
_glad_glGetUniformiv DD 01H DUP (?)
_glad_glGetVertexAttribdv DD 01H DUP (?)
_glad_glGetVertexAttribfv DD 01H DUP (?)
_glad_glGetVertexAttribiv DD 01H DUP (?)
_glad_glGetVertexAttribPointerv DD 01H DUP (?)
_glad_glIsProgram DD 01H DUP (?)
_glad_glIsShader DD 01H DUP (?)
_glad_glLinkProgram DD 01H DUP (?)
_glad_glShaderSource DD 01H DUP (?)
_glad_glUseProgram DD 01H DUP (?)
_glad_glUniform1f DD 01H DUP (?)
_glad_glUniform2f DD 01H DUP (?)
_glad_glUniform3f DD 01H DUP (?)
_glad_glUniform4f DD 01H DUP (?)
_glad_glUniform1i DD 01H DUP (?)
_glad_glUniform2i DD 01H DUP (?)
_glad_glUniform3i DD 01H DUP (?)
_glad_glUniform4i DD 01H DUP (?)
_glad_glUniform1fv DD 01H DUP (?)
_glad_glUniform2fv DD 01H DUP (?)
_glad_glUniform3fv DD 01H DUP (?)
_glad_glUniform4fv DD 01H DUP (?)
_glad_glUniform1iv DD 01H DUP (?)
_glad_glUniform2iv DD 01H DUP (?)
_glad_glUniform3iv DD 01H DUP (?)
_glad_glUniform4iv DD 01H DUP (?)
_glad_glUniformMatrix2fv DD 01H DUP (?)
_glad_glUniformMatrix3fv DD 01H DUP (?)
_glad_glUniformMatrix4fv DD 01H DUP (?)
_glad_glValidateProgram DD 01H DUP (?)
_glad_glVertexAttrib1d DD 01H DUP (?)
_glad_glVertexAttrib1dv DD 01H DUP (?)
_glad_glVertexAttrib1f DD 01H DUP (?)
_glad_glVertexAttrib1fv DD 01H DUP (?)
_glad_glVertexAttrib1s DD 01H DUP (?)
_glad_glVertexAttrib1sv DD 01H DUP (?)
_glad_glVertexAttrib2d DD 01H DUP (?)
_glad_glVertexAttrib2dv DD 01H DUP (?)
_glad_glVertexAttrib2f DD 01H DUP (?)
_glad_glVertexAttrib2fv DD 01H DUP (?)
_glad_glVertexAttrib2s DD 01H DUP (?)
_glad_glVertexAttrib2sv DD 01H DUP (?)
_glad_glVertexAttrib3d DD 01H DUP (?)
_glad_glVertexAttrib3dv DD 01H DUP (?)
_glad_glVertexAttrib3f DD 01H DUP (?)
_glad_glVertexAttrib3fv DD 01H DUP (?)
_glad_glVertexAttrib3s DD 01H DUP (?)
_glad_glVertexAttrib3sv DD 01H DUP (?)
_glad_glVertexAttrib4Nbv DD 01H DUP (?)
_glad_glVertexAttrib4Niv DD 01H DUP (?)
_glad_glVertexAttrib4Nsv DD 01H DUP (?)
_glad_glVertexAttrib4Nub DD 01H DUP (?)
_glad_glVertexAttrib4Nubv DD 01H DUP (?)
_glad_glVertexAttrib4Nuiv DD 01H DUP (?)
_glad_glVertexAttrib4Nusv DD 01H DUP (?)
_glad_glVertexAttrib4bv DD 01H DUP (?)
_glad_glVertexAttrib4d DD 01H DUP (?)
_glad_glVertexAttrib4dv DD 01H DUP (?)
_glad_glVertexAttrib4f DD 01H DUP (?)
_glad_glVertexAttrib4fv DD 01H DUP (?)
_glad_glVertexAttrib4iv DD 01H DUP (?)
_glad_glVertexAttrib4s DD 01H DUP (?)
_glad_glVertexAttrib4sv DD 01H DUP (?)
_glad_glVertexAttrib4ubv DD 01H DUP (?)
_glad_glVertexAttrib4uiv DD 01H DUP (?)
_glad_glVertexAttrib4usv DD 01H DUP (?)
_glad_glVertexAttribPointer DD 01H DUP (?)
_GLAD_GL_VERSION_2_1 DD 01H DUP (?)
_glad_glUniformMatrix2x3fv DD 01H DUP (?)
_glad_glUniformMatrix3x2fv DD 01H DUP (?)
_glad_glUniformMatrix2x4fv DD 01H DUP (?)
_glad_glUniformMatrix4x2fv DD 01H DUP (?)
_glad_glUniformMatrix3x4fv DD 01H DUP (?)
_glad_glUniformMatrix4x3fv DD 01H DUP (?)
_GLAD_GL_VERSION_3_0 DD 01H DUP (?)
_glad_glColorMaski DD 01H DUP (?)
_glad_glGetBooleani_v DD 01H DUP (?)
_glad_glGetIntegeri_v DD 01H DUP (?)
_glad_glEnablei DD 01H DUP (?)
_glad_glDisablei DD 01H DUP (?)
_glad_glIsEnabledi DD 01H DUP (?)
_glad_glBeginTransformFeedback DD 01H DUP (?)
_glad_glEndTransformFeedback DD 01H DUP (?)
_glad_glBindBufferRange DD 01H DUP (?)
_glad_glBindBufferBase DD 01H DUP (?)
_glad_glTransformFeedbackVaryings DD 01H DUP (?)
_glad_glGetTransformFeedbackVarying DD 01H DUP (?)
_glad_glClampColor DD 01H DUP (?)
_glad_glBeginConditionalRender DD 01H DUP (?)
_glad_glEndConditionalRender DD 01H DUP (?)
_glad_glVertexAttribIPointer DD 01H DUP (?)
_glad_glGetVertexAttribIiv DD 01H DUP (?)
_glad_glGetVertexAttribIuiv DD 01H DUP (?)
_glad_glVertexAttribI1i DD 01H DUP (?)
_glad_glVertexAttribI2i DD 01H DUP (?)
_glad_glVertexAttribI3i DD 01H DUP (?)
_glad_glVertexAttribI4i DD 01H DUP (?)
_glad_glVertexAttribI1ui DD 01H DUP (?)
_glad_glVertexAttribI2ui DD 01H DUP (?)
_glad_glVertexAttribI3ui DD 01H DUP (?)
_glad_glVertexAttribI4ui DD 01H DUP (?)
_glad_glVertexAttribI1iv DD 01H DUP (?)
_glad_glVertexAttribI2iv DD 01H DUP (?)
_glad_glVertexAttribI3iv DD 01H DUP (?)
_glad_glVertexAttribI4iv DD 01H DUP (?)
_glad_glVertexAttribI1uiv DD 01H DUP (?)
_glad_glVertexAttribI2uiv DD 01H DUP (?)
_glad_glVertexAttribI3uiv DD 01H DUP (?)
_glad_glVertexAttribI4uiv DD 01H DUP (?)
_glad_glVertexAttribI4bv DD 01H DUP (?)
_glad_glVertexAttribI4sv DD 01H DUP (?)
_glad_glVertexAttribI4ubv DD 01H DUP (?)
_glad_glVertexAttribI4usv DD 01H DUP (?)
_glad_glGetUniformuiv DD 01H DUP (?)
_glad_glBindFragDataLocation DD 01H DUP (?)
_glad_glGetFragDataLocation DD 01H DUP (?)
_glad_glUniform1ui DD 01H DUP (?)
_glad_glUniform2ui DD 01H DUP (?)
_glad_glUniform3ui DD 01H DUP (?)
_glad_glUniform4ui DD 01H DUP (?)
_glad_glUniform1uiv DD 01H DUP (?)
_glad_glUniform2uiv DD 01H DUP (?)
_glad_glUniform3uiv DD 01H DUP (?)
_glad_glUniform4uiv DD 01H DUP (?)
_glad_glTexParameterIiv DD 01H DUP (?)
_glad_glTexParameterIuiv DD 01H DUP (?)
_glad_glGetTexParameterIiv DD 01H DUP (?)
_glad_glGetTexParameterIuiv DD 01H DUP (?)
_glad_glClearBufferiv DD 01H DUP (?)
_glad_glClearBufferuiv DD 01H DUP (?)
_glad_glClearBufferfv DD 01H DUP (?)
_glad_glClearBufferfi DD 01H DUP (?)
_glad_glGetStringi DD 01H DUP (?)
_glad_glIsRenderbuffer DD 01H DUP (?)
_glad_glBindRenderbuffer DD 01H DUP (?)
_glad_glDeleteRenderbuffers DD 01H DUP (?)
_glad_glGenRenderbuffers DD 01H DUP (?)
_glad_glRenderbufferStorage DD 01H DUP (?)
_glad_glGetRenderbufferParameteriv DD 01H DUP (?)
_glad_glIsFramebuffer DD 01H DUP (?)
_glad_glBindFramebuffer DD 01H DUP (?)
_glad_glDeleteFramebuffers DD 01H DUP (?)
_glad_glGenFramebuffers DD 01H DUP (?)
_glad_glCheckFramebufferStatus DD 01H DUP (?)
_glad_glFramebufferTexture1D DD 01H DUP (?)
_glad_glFramebufferTexture2D DD 01H DUP (?)
_glad_glFramebufferTexture3D DD 01H DUP (?)
_glad_glFramebufferRenderbuffer DD 01H DUP (?)
_glad_glGetFramebufferAttachmentParameteriv DD 01H DUP (?)
_glad_glGenerateMipmap DD 01H DUP (?)
_glad_glBlitFramebuffer DD 01H DUP (?)
_glad_glRenderbufferStorageMultisample DD 01H DUP (?)
_glad_glFramebufferTextureLayer DD 01H DUP (?)
_glad_glMapBufferRange DD 01H DUP (?)
_glad_glFlushMappedBufferRange DD 01H DUP (?)
_glad_glBindVertexArray DD 01H DUP (?)
_glad_glDeleteVertexArrays DD 01H DUP (?)
_glad_glGenVertexArrays DD 01H DUP (?)
_glad_glIsVertexArray DD 01H DUP (?)
_GLAD_GL_VERSION_3_1 DD 01H DUP (?)
_glad_glDrawArraysInstanced DD 01H DUP (?)
_glad_glDrawElementsInstanced DD 01H DUP (?)
_glad_glTexBuffer DD 01H DUP (?)
_glad_glPrimitiveRestartIndex DD 01H DUP (?)
_glad_glCopyBufferSubData DD 01H DUP (?)
_glad_glGetUniformIndices DD 01H DUP (?)
_glad_glGetActiveUniformsiv DD 01H DUP (?)
_glad_glGetActiveUniformName DD 01H DUP (?)
_glad_glGetUniformBlockIndex DD 01H DUP (?)
_glad_glGetActiveUniformBlockiv DD 01H DUP (?)
_glad_glGetActiveUniformBlockName DD 01H DUP (?)
_glad_glUniformBlockBinding DD 01H DUP (?)
_GLAD_GL_VERSION_3_2 DD 01H DUP (?)
_glad_glDrawElementsBaseVertex DD 01H DUP (?)
_glad_glDrawRangeElementsBaseVertex DD 01H DUP (?)
_glad_glDrawElementsInstancedBaseVertex DD 01H DUP (?)
_glad_glMultiDrawElementsBaseVertex DD 01H DUP (?)
_glad_glProvokingVertex DD 01H DUP (?)
_glad_glFenceSync DD 01H DUP (?)
_glad_glIsSync DD 01H DUP (?)
_glad_glDeleteSync DD 01H DUP (?)
_glad_glClientWaitSync DD 01H DUP (?)
_glad_glWaitSync DD 01H DUP (?)
_glad_glGetInteger64v DD 01H DUP (?)
_glad_glGetSynciv DD 01H DUP (?)
_glad_glGetInteger64i_v DD 01H DUP (?)
_glad_glGetBufferParameteri64v DD 01H DUP (?)
_glad_glFramebufferTexture DD 01H DUP (?)
_glad_glTexImage2DMultisample DD 01H DUP (?)
_glad_glTexImage3DMultisample DD 01H DUP (?)
_glad_glGetMultisamplefv DD 01H DUP (?)
_glad_glSampleMaski DD 01H DUP (?)
_GLAD_GL_VERSION_3_3 DD 01H DUP (?)
_glad_glBindFragDataLocationIndexed DD 01H DUP (?)
_glad_glGetFragDataIndex DD 01H DUP (?)
_glad_glGenSamplers DD 01H DUP (?)
_glad_glDeleteSamplers DD 01H DUP (?)
_glad_glIsSampler DD 01H DUP (?)
_glad_glBindSampler DD 01H DUP (?)
_glad_glSamplerParameteri DD 01H DUP (?)
_glad_glSamplerParameteriv DD 01H DUP (?)
_glad_glSamplerParameterf DD 01H DUP (?)
_glad_glSamplerParameterfv DD 01H DUP (?)
_glad_glSamplerParameterIiv DD 01H DUP (?)
_glad_glSamplerParameterIuiv DD 01H DUP (?)
_glad_glGetSamplerParameteriv DD 01H DUP (?)
_glad_glGetSamplerParameterIiv DD 01H DUP (?)
_glad_glGetSamplerParameterfv DD 01H DUP (?)
_glad_glGetSamplerParameterIuiv DD 01H DUP (?)
_glad_glQueryCounter DD 01H DUP (?)
_glad_glGetQueryObjecti64v DD 01H DUP (?)
_glad_glGetQueryObjectui64v DD 01H DUP (?)
_glad_glVertexAttribDivisor DD 01H DUP (?)
_glad_glVertexAttribP1ui DD 01H DUP (?)
_glad_glVertexAttribP1uiv DD 01H DUP (?)
_glad_glVertexAttribP2ui DD 01H DUP (?)
_glad_glVertexAttribP2uiv DD 01H DUP (?)
_glad_glVertexAttribP3ui DD 01H DUP (?)
_glad_glVertexAttribP3uiv DD 01H DUP (?)
_glad_glVertexAttribP4ui DD 01H DUP (?)
_glad_glVertexAttribP4uiv DD 01H DUP (?)
_glad_glVertexP2ui DD 01H DUP (?)
_glad_glVertexP2uiv DD 01H DUP (?)
_glad_glVertexP3ui DD 01H DUP (?)
_glad_glVertexP3uiv DD 01H DUP (?)
_glad_glVertexP4ui DD 01H DUP (?)
_glad_glVertexP4uiv DD 01H DUP (?)
_glad_glTexCoordP1ui DD 01H DUP (?)
_glad_glTexCoordP1uiv DD 01H DUP (?)
_glad_glTexCoordP2ui DD 01H DUP (?)
_glad_glTexCoordP2uiv DD 01H DUP (?)
_glad_glTexCoordP3ui DD 01H DUP (?)
_glad_glTexCoordP3uiv DD 01H DUP (?)
_glad_glTexCoordP4ui DD 01H DUP (?)
_glad_glTexCoordP4uiv DD 01H DUP (?)
_glad_glMultiTexCoordP1ui DD 01H DUP (?)
_glad_glMultiTexCoordP1uiv DD 01H DUP (?)
_glad_glMultiTexCoordP2ui DD 01H DUP (?)
_glad_glMultiTexCoordP2uiv DD 01H DUP (?)
_glad_glMultiTexCoordP3ui DD 01H DUP (?)
_glad_glMultiTexCoordP3uiv DD 01H DUP (?)
_glad_glMultiTexCoordP4ui DD 01H DUP (?)
_glad_glMultiTexCoordP4uiv DD 01H DUP (?)
_glad_glNormalP3ui DD 01H DUP (?)
_glad_glNormalP3uiv DD 01H DUP (?)
_glad_glColorP3ui DD 01H DUP (?)
_glad_glColorP3uiv DD 01H DUP (?)
_glad_glColorP4ui DD 01H DUP (?)
_glad_glColorP4uiv DD 01H DUP (?)
_glad_glSecondaryColorP3ui DD 01H DUP (?)
_glad_glSecondaryColorP3uiv DD 01H DUP (?)
_BSS	ENDS
msvcjmc	SEGMENT
__F66CEB67_corecrt_stdio_config@h DB 01H
__101834BA_corecrt_wstdio@h DB 01H
__AD6A91B7_stdio@h DB 01H
__367CC694_corecrt_memcpy_s@h DB 01H
__DC9673E3_corecrt_wstring@h DB 01H
__A29A7DFB_string@h DB 01H
__7242C389_ctype@h DB 01H
__90A1F774_basetsd@h DB 01H
__AF541008_winnt@h DB 01H
__0D001789_processthreadsapi@h DB 01H
__F972325D_memoryapi@h DB 01H
__76CD430D_winerror@h DB 01H
__737D49DB_winbase@h DB 01H
__376EBCA0_winioctl@h DB 01H
__0396F1A5_stralign@h DB 01H
__550F0BDD_glad@c DB 01H
msvcjmc	ENDS
PUBLIC	___local_stdio_scanf_options
PUBLIC	__vsscanf_s_l
PUBLIC	_vsscanf_s
PUBLIC	_sscanf_s
PUBLIC	_gladLoadGL
PUBLIC	_gladLoadGLLoader
PUBLIC	__JustMyCode_Default
PUBLIC	??_C@_1BK@LCODAJLO@?$AAo?$AAp?$AAe?$AAn?$AAg?$AAl?$AA3?$AA2?$AA?4?$AAd?$AAl?$AAl@ ; `string'
PUBLIC	??_C@_0BC@FFKMKEGM@wglGetProcAddress@		; `string'
PUBLIC	??_C@_0L@BAPBLHME@glCullFace@			; `string'
PUBLIC	??_C@_0M@ILBMDJDA@glFrontFace@			; `string'
PUBLIC	??_C@_06HEADGMBC@glHint@			; `string'
PUBLIC	??_C@_0M@CFLGNFPG@glLineWidth@			; `string'
PUBLIC	??_C@_0M@EEAPMMNM@glPointSize@			; `string'
PUBLIC	??_C@_0O@DKMNBFMB@glPolygonMode@		; `string'
PUBLIC	??_C@_09ECGPAEPL@glScissor@			; `string'
PUBLIC	??_C@_0BA@INKFIMGP@glTexParameterf@		; `string'
PUBLIC	??_C@_0BB@KEOFAHDF@glTexParameterfv@		; `string'
PUBLIC	??_C@_0BA@KDNJAKA@glTexParameteri@		; `string'
PUBLIC	??_C@_0BB@KPLJEAAI@glTexParameteriv@		; `string'
PUBLIC	??_C@_0N@JDMMMFHL@glTexImage1D@			; `string'
PUBLIC	??_C@_0N@JBIKHLCC@glTexImage2D@			; `string'
PUBLIC	??_C@_0N@EKCLGPL@glDrawBuffer@			; `string'
PUBLIC	??_C@_07IBAPPAHJ@glClear@			; `string'
PUBLIC	??_C@_0N@OGLMDNKC@glClearColor@			; `string'
PUBLIC	??_C@_0P@KBLPBBFP@glClearStencil@		; `string'
PUBLIC	??_C@_0N@LJIELNG@glClearDepth@			; `string'
PUBLIC	??_C@_0O@DJFHPFEP@glStencilMask@		; `string'
PUBLIC	??_C@_0M@DLGOAHPH@glColorMask@			; `string'
PUBLIC	??_C@_0M@KABMFLLN@glDepthMask@			; `string'
PUBLIC	??_C@_09MHGMIMKN@glDisable@			; `string'
PUBLIC	??_C@_08OOEHEKOP@glEnable@			; `string'
PUBLIC	??_C@_08DFCPOKBK@glFinish@			; `string'
PUBLIC	??_C@_07COFELLJA@glFlush@			; `string'
PUBLIC	??_C@_0M@PFBKOKOH@glBlendFunc@			; `string'
PUBLIC	??_C@_09GKGMNAKG@glLogicOp@			; `string'
PUBLIC	??_C@_0O@ENNLLOLN@glStencilFunc@		; `string'
PUBLIC	??_C@_0M@BILBNGF@glStencilOp@			; `string'
PUBLIC	??_C@_0M@NEJABAEP@glDepthFunc@			; `string'
PUBLIC	??_C@_0O@BFLAHHCK@glPixelStoref@		; `string'
PUBLIC	??_C@_0O@JCCIGLOF@glPixelStorei@		; `string'
PUBLIC	??_C@_0N@HFKHBECK@glReadBuffer@			; `string'
PUBLIC	??_C@_0N@CKFNNHOO@glReadPixels@			; `string'
PUBLIC	??_C@_0O@NLMELLCJ@glGetBooleanv@		; `string'
PUBLIC	??_C@_0N@OFBMMCDH@glGetDoublev@			; `string'
PUBLIC	??_C@_0L@FPKAMKHB@glGetError@			; `string'
PUBLIC	??_C@_0M@CKCOBONE@glGetFloatv@			; `string'
PUBLIC	??_C@_0O@DHHDCCLF@glGetIntegerv@		; `string'
PUBLIC	??_C@_0M@OPOBFDCB@glGetString@			; `string'
PUBLIC	??_C@_0O@DOIIJLAD@glGetTexImage@		; `string'
PUBLIC	??_C@_0BE@DNHBPKMC@glGetTexParameterfv@		; `string'
PUBLIC	??_C@_0BE@DGCNLNPP@glGetTexParameteriv@		; `string'
PUBLIC	??_C@_0BJ@GAMLGIFF@glGetTexLevelParameterfv@	; `string'
PUBLIC	??_C@_0BJ@GLJHCPGI@glGetTexLevelParameteriv@	; `string'
PUBLIC	??_C@_0M@INHMIHKC@glIsEnabled@			; `string'
PUBLIC	??_C@_0N@PEBDIKOA@glDepthRange@			; `string'
PUBLIC	??_C@_0L@KBLIPDFH@glViewport@			; `string'
PUBLIC	??_C@_09KAGOBDOO@glNewList@			; `string'
PUBLIC	??_C@_09HKEBCLHH@glEndList@			; `string'
PUBLIC	??_C@_0L@CIPLDIDL@glCallList@			; `string'
PUBLIC	??_C@_0M@LFDBDICJ@glCallLists@			; `string'
PUBLIC	??_C@_0O@KPJIJAFM@glDeleteLists@		; `string'
PUBLIC	??_C@_0L@BNOFOEBP@glGenLists@			; `string'
PUBLIC	??_C@_0L@HDOJDFBA@glListBase@			; `string'
PUBLIC	??_C@_07FCOIFMD@glBegin@			; `string'
PUBLIC	??_C@_08PJOLDJDK@glBitmap@			; `string'
PUBLIC	??_C@_09JLHBBGHE@glColor3b@			; `string'
PUBLIC	??_C@_0L@COJGBKED@glColor3bv@			; `string'
PUBLIC	??_C@_09MNCLLBPC@glColor3d@			; `string'
PUBLIC	??_C@_0L@CKBLGGPB@glColor3dv@			; `string'
PUBLIC	??_C@_09PPBNNDHA@glColor3f@			; `string'
PUBLIC	??_C@_0L@CJJPLCJP@glColor3fv@			; `string'
PUBLIC	??_C@_09HIIFMPLP@glColor3i@			; `string'
PUBLIC	??_C@_0L@CCMDPFKC@glColor3iv@			; `string'
PUBLIC	??_C@_09MIKIDFGE@glColor3s@			; `string'
PUBLIC	??_C@_0L@DDHCNDAE@glColor3sv@			; `string'
PUBLIC	??_C@_0L@BJFBHIOD@glColor3ub@			; `string'
PUBLIC	??_C@_0M@EAHPDMMK@glColor3ubv@			; `string'
PUBLIC	??_C@_0L@PKKFKBCI@glColor3ui@			; `string'
PUBLIC	??_C@_0M@EMCKNDCL@glColor3uiv@			; `string'
PUBLIC	??_C@_0L@EKIIFLPD@glColor3us@			; `string'
PUBLIC	??_C@_0M@FNJLPFIN@glColor3usv@			; `string'
PUBLIC	??_C@_09JODOAAPB@glColor4b@			; `string'
PUBLIC	??_C@_0L@LDEBCCPK@glColor4bv@			; `string'
PUBLIC	??_C@_09MIGEKHHH@glColor4d@			; `string'
PUBLIC	??_C@_0L@LHMMFOEI@glColor4dv@			; `string'
PUBLIC	??_C@_09PKFCMFPF@glColor4f@			; `string'
PUBLIC	??_C@_0L@LEEIIKCG@glColor4fv@			; `string'
PUBLIC	??_C@_09HNMKNJDK@glColor4i@			; `string'
PUBLIC	??_C@_0L@LPBEMNBL@glColor4iv@			; `string'
PUBLIC	??_C@_09MNOHCDOB@glColor4s@			; `string'
PUBLIC	??_C@_0L@KOKFOLLN@glColor4sv@			; `string'
PUBLIC	??_C@_0L@IEIGEAFK@glColor4ub@			; `string'
PUBLIC	??_C@_0M@PCFPOANK@glColor4ubv@			; `string'
PUBLIC	??_C@_0L@GHHCJJJB@glColor4ui@			; `string'
PUBLIC	??_C@_0M@POAKAPDL@glColor4uiv@			; `string'
PUBLIC	??_C@_0L@NHFPGDEK@glColor4us@			; `string'
PUBLIC	??_C@_0M@OPLLCJJN@glColor4usv@			; `string'
PUBLIC	??_C@_0L@DFCKJEPI@glEdgeFlag@			; `string'
PUBLIC	??_C@_0M@MKDGIOMK@glEdgeFlagv@			; `string'
PUBLIC	??_C@_05OIBMBLHE@glEnd@				; `string'
PUBLIC	??_C@_08HOOEKNLP@glIndexd@			; `string'
PUBLIC	??_C@_09CCMFJEMA@glIndexdv@			; `string'
PUBLIC	??_C@_08EMNCMPDN@glIndexf@			; `string'
PUBLIC	??_C@_09CBEBEAKO@glIndexfv@			; `string'
PUBLIC	??_C@_08MLEKNDPC@glIndexi@			; `string'
PUBLIC	??_C@_09CKBNAHJD@glIndexiv@			; `string'
PUBLIC	??_C@_08HLGHCJCJ@glIndexs@			; `string'
PUBLIC	??_C@_09DLKMCBDF@glIndexsv@			; `string'
PUBLIC	??_C@_0L@FCAONKPI@glNormal3b@			; `string'
PUBLIC	??_C@_0M@MKFBKKIE@glNormal3bv@			; `string'
PUBLIC	??_C@_0L@EFEHNHO@glNormal3d@			; `string'
PUBLIC	??_C@_0M@MONMNGDG@glNormal3dv@			; `string'
PUBLIC	??_C@_0L@DGGCBPPM@glNormal3f@			; `string'
PUBLIC	??_C@_0M@MNFIACFI@glNormal3fv@			; `string'
PUBLIC	??_C@_0L@LBPKADDD@glNormal3i@			; `string'
PUBLIC	??_C@_0M@MGAEEFGF@glNormal3iv@			; `string'
PUBLIC	??_C@_0L@BNHPJOI@glNormal3s@			; `string'
PUBLIC	??_C@_0M@NHLFGDMD@glNormal3sv@			; `string'
PUBLIC	??_C@_0O@JNCPGME@glRasterPos2d@			; `string'
PUBLIC	??_C@_0P@OFGFAKCP@glRasterPos2dv@		; `string'
PUBLIC	??_C@_0O@DLOEJEEG@glRasterPos2f@		; `string'
PUBLIC	??_C@_0P@OGOBNOEB@glRasterPos2fv@		; `string'
PUBLIC	??_C@_0O@LMHMIIIJ@glRasterPos2i@		; `string'
PUBLIC	??_C@_0P@ONLNJJHM@glRasterPos2iv@		; `string'
PUBLIC	??_C@_0O@MFBHCFC@glRasterPos2s@			; `string'
PUBLIC	??_C@_0P@PMAMLPNK@glRasterPos2sv@		; `string'
PUBLIC	??_C@_0O@IBAJMPD@glRasterPos3d@			; `string'
PUBLIC	??_C@_0P@FNNJGNEK@glRasterPos3dv@		; `string'
PUBLIC	??_C@_0O@DKCGPOHB@glRasterPos3f@		; `string'
PUBLIC	??_C@_0P@FOFNLJCE@glRasterPos3fv@		; `string'
PUBLIC	??_C@_0O@LNLOOCLO@glRasterPos3i@		; `string'
PUBLIC	??_C@_0P@FFABPOBJ@glRasterPos3iv@		; `string'
PUBLIC	??_C@_0O@NJDBIGF@glRasterPos3s@			; `string'
PUBLIC	??_C@_0P@EELANILP@glRasterPos3sv@		; `string'
PUBLIC	??_C@_0O@NFPIKHG@glRasterPos4d@			; `string'
PUBLIC	??_C@_0P@MAAOFFPD@glRasterPos4dv@		; `string'
PUBLIC	??_C@_0O@DPGJOIPE@glRasterPos4f@		; `string'
PUBLIC	??_C@_0P@MDIKIBJN@glRasterPos4fv@		; `string'
PUBLIC	??_C@_0O@LIPBPEDL@glRasterPos4i@		; `string'
PUBLIC	??_C@_0P@MINGMGKA@glRasterPos4iv@		; `string'
PUBLIC	??_C@_0O@INMAOOA@glRasterPos4s@			; `string'
PUBLIC	??_C@_0P@NJGHOAAG@glRasterPos4sv@		; `string'
PUBLIC	??_C@_07GHILMIKG@glRectd@			; `string'
PUBLIC	??_C@_08EGLHFDGF@glRectdv@			; `string'
PUBLIC	??_C@_07FFLNKKCE@glRectf@			; `string'
PUBLIC	??_C@_08EFDDIHAL@glRectfv@			; `string'
PUBLIC	??_C@_07NCCFLGOL@glRecti@			; `string'
PUBLIC	??_C@_08EOGPMADG@glRectiv@			; `string'
PUBLIC	??_C@_07GCAIEMDA@glRects@			; `string'
PUBLIC	??_C@_08FPNOOGJA@glRectsv@			; `string'
PUBLIC	??_C@_0N@CKKBPCNP@glTexCoord1d@			; `string'
PUBLIC	??_C@_0O@GPCDLAMH@glTexCoord1dv@		; `string'
PUBLIC	??_C@_0N@BIJHJAFN@glTexCoord1f@			; `string'
PUBLIC	??_C@_0O@GMKHGEKJ@glTexCoord1fv@		; `string'
PUBLIC	??_C@_0N@JPAPIMJC@glTexCoord1i@			; `string'
PUBLIC	??_C@_0O@GHPLCDJE@glTexCoord1iv@		; `string'
PUBLIC	??_C@_0N@CPCCHGEJ@glTexCoord1s@			; `string'
PUBLIC	??_C@_0O@HGEKAFDC@glTexCoord1sv@		; `string'
PUBLIC	??_C@_0N@CIOHEMIG@glTexCoord2d@			; `string'
PUBLIC	??_C@_0O@HNJGBPCJ@glTexCoord2dv@		; `string'
PUBLIC	??_C@_0N@BKNBCOAE@glTexCoord2f@			; `string'
PUBLIC	??_C@_0O@HOBCMLEH@glTexCoord2fv@		; `string'
PUBLIC	??_C@_0N@JNEJDCML@glTexCoord2i@			; `string'
PUBLIC	??_C@_0O@HFEOIMHK@glTexCoord2iv@		; `string'
PUBLIC	??_C@_0N@CNGEMIBA@glTexCoord2s@			; `string'
PUBLIC	??_C@_0O@GEPPKKNM@glTexCoord2sv@		; `string'
PUBLIC	??_C@_0N@CJCFCGLB@glTexCoord3d@			; `string'
PUBLIC	??_C@_0O@MFCKHIEM@glTexCoord3dv@		; `string'
PUBLIC	??_C@_0N@BLBDEEDD@glTexCoord3f@			; `string'
PUBLIC	??_C@_0O@MGKOKMCC@glTexCoord3fv@		; `string'
PUBLIC	??_C@_0N@JMILFIPM@glTexCoord3i@			; `string'
PUBLIC	??_C@_0O@MNPCOLBP@glTexCoord3iv@		; `string'
PUBLIC	??_C@_0N@CMKGKCCH@glTexCoord3s@			; `string'
PUBLIC	??_C@_0O@NMEDMNLJ@glTexCoord3sv@		; `string'
PUBLIC	??_C@_0N@CMGKDADE@glTexCoord4d@			; `string'
PUBLIC	??_C@_0O@FIPNEAPF@glTexCoord4dv@		; `string'
PUBLIC	??_C@_0N@BOFMFCLG@glTexCoord4f@			; `string'
PUBLIC	??_C@_0O@FLHJJEJL@glTexCoord4fv@		; `string'
PUBLIC	??_C@_0N@JJMEEOHJ@glTexCoord4i@			; `string'
PUBLIC	??_C@_0O@FACFNDKG@glTexCoord4iv@		; `string'
PUBLIC	??_C@_0N@CJOJLEKC@glTexCoord4s@			; `string'
PUBLIC	??_C@_0O@EBJEPFAA@glTexCoord4sv@		; `string'
PUBLIC	??_C@_0L@INGMNOLD@glVertex2d@			; `string'
PUBLIC	??_C@_0M@CLIAFAJI@glVertex2dv@			; `string'
PUBLIC	??_C@_0L@LPFKLMDB@glVertex2f@			; `string'
PUBLIC	??_C@_0M@CIAEIEPG@glVertex2fv@			; `string'
PUBLIC	??_C@_0L@DIMCKAPO@glVertex2i@			; `string'
PUBLIC	??_C@_0M@CDFIMDML@glVertex2iv@			; `string'
PUBLIC	??_C@_0L@IIOPFKCF@glVertex2s@			; `string'
PUBLIC	??_C@_0M@DCOJOFGN@glVertex2sv@			; `string'
PUBLIC	??_C@_0L@IMKOLEIE@glVertex3d@			; `string'
PUBLIC	??_C@_0M@JDDMDHPN@glVertex3dv@			; `string'
PUBLIC	??_C@_0L@LOJINGAG@glVertex3f@			; `string'
PUBLIC	??_C@_0M@JALIODJD@glVertex3fv@			; `string'
PUBLIC	??_C@_0L@DJAAMKMJ@glVertex3i@			; `string'
PUBLIC	??_C@_0M@JLOEKEKO@glVertex3iv@			; `string'
PUBLIC	??_C@_0L@IJCNDABC@glVertex3s@			; `string'
PUBLIC	??_C@_0M@IKFFICAI@glVertex3sv@			; `string'
PUBLIC	??_C@_0L@IJOBKCAB@glVertex4d@			; `string'
PUBLIC	??_C@_0M@OOLAPEE@glVertex4dv@			; `string'
PUBLIC	??_C@_0L@LLNHMAID@glVertex4f@			; `string'
PUBLIC	??_C@_0M@NGPNLCK@glVertex4fv@			; `string'
PUBLIC	??_C@_0L@DMEPNMEM@glVertex4i@			; `string'
PUBLIC	??_C@_0M@GDDJMBH@glVertex4iv@			; `string'
PUBLIC	??_C@_0L@IMGCCGJH@glVertex4s@			; `string'
PUBLIC	??_C@_0M@BHICLKLB@glVertex4sv@			; `string'
PUBLIC	??_C@_0M@OHCNGGFF@glClipPlane@			; `string'
PUBLIC	??_C@_0BA@OOEHEGPC@glColorMaterial@		; `string'
PUBLIC	??_C@_06JJHNMGPD@glFogf@			; `string'
PUBLIC	??_C@_07FNEIAABA@glFogfv@			; `string'
PUBLIC	??_C@_06BOOFNKDM@glFogi@			; `string'
PUBLIC	??_C@_07FGBEEHCN@glFogiv@			; `string'
PUBLIC	??_C@_08LPDPILEL@glLightf@			; `string'
PUBLIC	??_C@_09JINEHJOD@glLightfv@			; `string'
PUBLIC	??_C@_08DIKHJHIE@glLighti@			; `string'
PUBLIC	??_C@_09JDIIDONO@glLightiv@			; `string'
PUBLIC	??_C@_0O@HPCJLAII@glLightModelf@		; `string'
PUBLIC	??_C@_0P@JKHJPMNC@glLightModelfv@		; `string'
PUBLIC	??_C@_0O@PILBKMEH@glLightModeli@		; `string'
PUBLIC	??_C@_0P@JBCFLLOP@glLightModeliv@		; `string'
PUBLIC	??_C@_0O@LDOINBOK@glLineStipple@		; `string'
PUBLIC	??_C@_0M@HANOIKMC@glMaterialf@			; `string'
PUBLIC	??_C@_0N@MHPKDGG@glMaterialfv@			; `string'
PUBLIC	??_C@_0M@PHEGJGAN@glMateriali@			; `string'
PUBLIC	??_C@_0N@HCDOEFL@glMaterialiv@			; `string'
PUBLIC	??_C@_0BB@GIADEJGP@glPolygonStipple@		; `string'
PUBLIC	??_C@_0N@NALMFHKN@glShadeModel@			; `string'
PUBLIC	??_C@_09FCLLGECI@glTexEnvf@			; `string'
PUBLIC	??_C@_0L@EMICMNOO@glTexEnvfv@			; `string'
PUBLIC	??_C@_09NFCDHIOH@glTexEnvi@			; `string'
PUBLIC	??_C@_0L@EHNOIKND@glTexEnviv@			; `string'
PUBLIC	??_C@_09NPHJCAAD@glTexGend@			; `string'
PUBLIC	??_C@_0L@OALDPGOK@glTexGendv@			; `string'
PUBLIC	??_C@_09ONEPECIB@glTexGenf@			; `string'
PUBLIC	??_C@_0L@ODDHCCIE@glTexGenfv@			; `string'
PUBLIC	??_C@_09GKNHFOEO@glTexGeni@			; `string'
PUBLIC	??_C@_0L@OIGLGFLJ@glTexGeniv@			; `string'
PUBLIC	??_C@_0BB@COFAIKCN@glFeedbackBuffer@		; `string'
PUBLIC	??_C@_0P@KACPMBCN@glSelectBuffer@		; `string'
PUBLIC	??_C@_0N@HCFJFDGP@glRenderMode@			; `string'
PUBLIC	??_C@_0M@LBOBLINN@glInitNames@			; `string'
PUBLIC	??_C@_0L@JFFJNAJA@glLoadName@			; `string'
PUBLIC	??_C@_0O@KCIMMNEH@glPassThrough@		; `string'
PUBLIC	??_C@_09IKDPIJOE@glPopName@			; `string'
PUBLIC	??_C@_0L@LFFFABIK@glPushName@			; `string'
PUBLIC	??_C@_0N@OKAMEJMG@glClearAccum@			; `string'
PUBLIC	??_C@_0N@EIILHCMH@glClearIndex@			; `string'
PUBLIC	??_C@_0M@ONDJOEOA@glIndexMask@			; `string'
PUBLIC	??_C@_07LNIJJMEN@glAccum@			; `string'
PUBLIC	??_C@_0M@LLNGAHMN@glPopAttrib@			; `string'
PUBLIC	??_C@_0N@KDMLHFJM@glPushAttrib@			; `string'
PUBLIC	??_C@_07FEHGGJHC@glMap1d@			; `string'
PUBLIC	??_C@_07GGEAALPA@glMap1f@			; `string'
PUBLIC	??_C@_07FGDANHCL@glMap2d@			; `string'
PUBLIC	??_C@_07GEAGLFKJ@glMap2f@			; `string'
PUBLIC	??_C@_0M@MNDKIDNO@glMapGrid1d@			; `string'
PUBLIC	??_C@_0M@PPAMOBFM@glMapGrid1f@			; `string'
PUBLIC	??_C@_0M@MPHMDNIH@glMapGrid2d@			; `string'
PUBLIC	??_C@_0M@PNEKFPAF@glMapGrid2f@			; `string'
PUBLIC	??_C@_0O@FJBIDDKI@glEvalCoord1d@		; `string'
PUBLIC	??_C@_0P@KBDBONJJ@glEvalCoord1dv@		; `string'
PUBLIC	??_C@_0O@GLCOFBCK@glEvalCoord1f@		; `string'
PUBLIC	??_C@_0P@KCLFDJPH@glEvalCoord1fv@		; `string'
PUBLIC	??_C@_0O@FLFOINPB@glEvalCoord2d@		; `string'
PUBLIC	??_C@_0P@LDIEECHH@glEvalCoord2dv@		; `string'
PUBLIC	??_C@_0O@GJGIOPHD@glEvalCoord2f@		; `string'
PUBLIC	??_C@_0P@LAAAJGBJ@glEvalCoord2fv@		; `string'
PUBLIC	??_C@_0M@DCFEDLDA@glEvalMesh1@			; `string'
PUBLIC	??_C@_0N@DOEOCCJJ@glEvalPoint1@			; `string'
PUBLIC	??_C@_0M@BJHJGIPD@glEvalMesh2@			; `string'
PUBLIC	??_C@_0N@BFGDHBFK@glEvalPoint2@			; `string'
PUBLIC	??_C@_0M@BJGLMKCC@glAlphaFunc@			; `string'
PUBLIC	??_C@_0M@JAMJIGNB@glPixelZoom@			; `string'
PUBLIC	??_C@_0BB@HFCIPEN@glPixelTransferf@		; `string'
PUBLIC	??_C@_0BB@IAMKJDIC@glPixelTransferi@		; `string'
PUBLIC	??_C@_0N@CNONNBNO@glPixelMapfv@			; `string'
PUBLIC	??_C@_0O@ENPFNAEO@glPixelMapuiv@		; `string'
PUBLIC	??_C@_0O@FMEEPGOI@glPixelMapusv@		; `string'
PUBLIC	??_C@_0N@OACCOOE@glCopyPixels@			; `string'
PUBLIC	??_C@_0N@FLFIHFDP@glDrawPixels@			; `string'
PUBLIC	??_C@_0P@MMMNLMC@glGetClipPlane@		; `string'
PUBLIC	??_C@_0N@MGGMJGKA@glGetLightfv@			; `string'
PUBLIC	??_C@_0N@MNDANBJN@glGetLightiv@			; `string'
PUBLIC	??_C@_0L@FGIDEHCA@glGetMapdv@			; `string'
PUBLIC	??_C@_0L@FFAHJDEO@glGetMapfv@			; `string'
PUBLIC	??_C@_0L@FOFLNEHD@glGetMapiv@			; `string'
PUBLIC	??_C@_0BA@GCPPEEDM@glGetMaterialfv@		; `string'
PUBLIC	??_C@_0BA@GJKDADAB@glGetMaterialiv@		; `string'
PUBLIC	??_C@_0BA@EDGNDGIE@glGetPixelMapfv@		; `string'
PUBLIC	??_C@_0BB@MGCFOIED@glGetPixelMapuiv@		; `string'
PUBLIC	??_C@_0BB@NHJEMOOF@glGetPixelMapusv@		; `string'
PUBLIC	??_C@_0BE@PBJHLEJI@glGetPolygonStipple@		; `string'
PUBLIC	??_C@_0O@KDAJGFCL@glGetTexEnvfv@		; `string'
PUBLIC	??_C@_0O@KIFFCCBG@glGetTexEnviv@		; `string'
PUBLIC	??_C@_0O@PDIFOCP@glGetTexGendv@			; `string'
PUBLIC	??_C@_0O@MLMIKEB@glGetTexGenfv@			; `string'
PUBLIC	??_C@_0O@HOAMNHM@glGetTexGeniv@			; `string'
PUBLIC	??_C@_08DMFMJKDH@glIsList@			; `string'
PUBLIC	??_C@_09ICLFHOKP@glFrustum@			; `string'
PUBLIC	??_C@_0P@EJAFHEPO@glLoadIdentity@		; `string'
PUBLIC	??_C@_0O@DJGBMGEI@glLoadMatrixf@		; `string'
PUBLIC	??_C@_0O@LFHKEMK@glLoadMatrixd@			; `string'
PUBLIC	??_C@_0N@KDLNHKEJ@glMatrixMode@			; `string'
PUBLIC	??_C@_0O@LHKDNPKJ@glMultMatrixf@		; `string'
PUBLIC	??_C@_0O@IFJFLNCL@glMultMatrixd@		; `string'
PUBLIC	??_C@_07DBAFHOII@glOrtho@			; `string'
PUBLIC	??_C@_0M@JPEAAEEK@glPopMatrix@			; `string'
PUBLIC	??_C@_0N@IHFNHGBL@glPushMatrix@			; `string'
PUBLIC	??_C@_09GANFLDAO@glRotated@			; `string'
PUBLIC	??_C@_09FCODNBIM@glRotatef@			; `string'
PUBLIC	??_C@_08KAMCINDI@glScaled@			; `string'
PUBLIC	??_C@_08JCPEOPLK@glScalef@			; `string'
PUBLIC	??_C@_0N@LHMFFDFG@glTranslated@			; `string'
PUBLIC	??_C@_0N@IFPDDBNE@glTranslatef@			; `string'
PUBLIC	??_C@_0N@CMNPPOHA@glDrawArrays@			; `string'
PUBLIC	??_C@_0P@MENFIFGE@glDrawElements@		; `string'
PUBLIC	??_C@_0O@LADEDGJO@glGetPointerv@		; `string'
PUBLIC	??_C@_0BA@FFBJGNC@glPolygonOffset@		; `string'
PUBLIC	??_C@_0BB@MEEDBHPL@glCopyTexImage1D@		; `string'
PUBLIC	??_C@_0BB@MGAFKJKC@glCopyTexImage2D@		; `string'
PUBLIC	??_C@_0BE@PKNCAIGI@glCopyTexSubImage1D@		; `string'
PUBLIC	??_C@_0BE@PIJELGDB@glCopyTexSubImage2D@		; `string'
PUBLIC	??_C@_0BA@NFOOCKJD@glTexSubImage1D@		; `string'
PUBLIC	??_C@_0BA@NHKIJEMK@glTexSubImage2D@		; `string'
PUBLIC	??_C@_0O@JKKCIBGC@glBindTexture@		; `string'
PUBLIC	??_C@_0BB@KMPLFJIC@glDeleteTextures@		; `string'
PUBLIC	??_C@_0O@LLMANLNK@glGenTextures@		; `string'
PUBLIC	??_C@_0M@NJHAEPDN@glIsTexture@			; `string'
PUBLIC	??_C@_0P@CKCIJELG@glArrayElement@		; `string'
PUBLIC	??_C@_0P@DPKEGLKI@glColorPointer@		; `string'
PUBLIC	??_C@_0BF@LJDHBNBP@glDisableClientState@	; `string'
PUBLIC	??_C@_0BC@LILGCNN@glEdgeFlagPointer@		; `string'
PUBLIC	??_C@_0BE@KECPKGNE@glEnableClientState@		; `string'
PUBLIC	??_C@_0P@KGJBLKPD@glIndexPointer@		; `string'
PUBLIC	??_C@_0BE@EDEDCKLI@glInterleavedArrays@		; `string'
PUBLIC	??_C@_0BA@DCLMCEOP@glNormalPointer@		; `string'
PUBLIC	??_C@_0BC@DAOMILMO@glTexCoordPointer@		; `string'
PUBLIC	??_C@_0BA@HAHECJNK@glVertexPointer@		; `string'
PUBLIC	??_C@_0BG@DHOKJLEP@glAreTexturesResident@	; `string'
PUBLIC	??_C@_0BF@FFCGNNIA@glPrioritizeTextures@	; `string'
PUBLIC	??_C@_09BBIPIKNC@glIndexub@			; `string'
PUBLIC	??_C@_0L@BBKJOCAC@glIndexubv@			; `string'
PUBLIC	??_C@_0BC@GOOJKIDH@glPopClientAttrib@		; `string'
PUBLIC	??_C@_0BD@JKGPLNEA@glPushClientAttrib@		; `string'
PUBLIC	??_C@_0BE@IHNAGJGJ@glDrawRangeElements@		; `string'
PUBLIC	??_C@_0N@JAEIBBBF@glTexImage3D@			; `string'
PUBLIC	??_C@_0BA@NGGKPOPN@glTexSubImage3D@		; `string'
PUBLIC	??_C@_0BE@PJFGNMAG@glCopyTexSubImage3D@		; `string'
PUBLIC	??_C@_0BA@KOBBIKOF@glActiveTexture@		; `string'
PUBLIC	??_C@_0BB@BJGIPMOA@glSampleCoverage@		; `string'
PUBLIC	??_C@_0BH@GGHNMAGP@glCompressedTexImage3D@	; `string'
PUBLIC	??_C@_0BH@GHLPKKFI@glCompressedTexImage2D@	; `string'
PUBLIC	??_C@_0BH@GFPJBEAB@glCompressedTexImage1D@	; `string'
PUBLIC	??_C@_0BK@EBJMCDPA@glCompressedTexSubImage3D@	; `string'
PUBLIC	??_C@_0BK@EAFOEJMH@glCompressedTexSubImage2D@	; `string'
PUBLIC	??_C@_0BK@ECBIPHJO@glCompressedTexSubImage1D@	; `string'
PUBLIC	??_C@_0BI@MPANLPPL@glGetCompressedTexImage@	; `string'
PUBLIC	??_C@_0BG@EGKOMLFO@glClientActiveTexture@	; `string'
PUBLIC	??_C@_0BC@IHHPPFPP@glMultiTexCoord1d@		; `string'
PUBLIC	??_C@_0BD@FEOAEOAI@glMultiTexCoord1dv@		; `string'
PUBLIC	??_C@_0BC@LFEJJHHN@glMultiTexCoord1f@		; `string'
PUBLIC	??_C@_0BD@FHGEJKGG@glMultiTexCoord1fv@		; `string'
PUBLIC	??_C@_0BC@DCNBILLC@glMultiTexCoord1i@		; `string'
PUBLIC	??_C@_0BD@FMDINNFL@glMultiTexCoord1iv@		; `string'
PUBLIC	??_C@_0BC@ICPMHBGJ@glMultiTexCoord1s@		; `string'
PUBLIC	??_C@_0BD@ENIJPLPN@glMultiTexCoord1sv@		; `string'
PUBLIC	??_C@_0BC@IFDJELKG@glMultiTexCoord2d@		; `string'
PUBLIC	??_C@_0BD@EGFFOBOG@glMultiTexCoord2dv@		; `string'
PUBLIC	??_C@_0BC@LHAPCJCE@glMultiTexCoord2f@		; `string'
PUBLIC	??_C@_0BD@EFNBDFII@glMultiTexCoord2fv@		; `string'
PUBLIC	??_C@_0BC@DAJHDFOL@glMultiTexCoord2i@		; `string'
PUBLIC	??_C@_0BD@EOINHCLF@glMultiTexCoord2iv@		; `string'
PUBLIC	??_C@_0BC@IALKMPDA@glMultiTexCoord2s@		; `string'
PUBLIC	??_C@_0BD@FPDMFEBD@glMultiTexCoord2sv@		; `string'
PUBLIC	??_C@_0BC@IEPLCBJB@glMultiTexCoord3d@		; `string'
PUBLIC	??_C@_0BD@POOJIGID@glMultiTexCoord3dv@		; `string'
PUBLIC	??_C@_0BC@LGMNEDBD@glMultiTexCoord3f@		; `string'
PUBLIC	??_C@_0BD@PNGNFCON@glMultiTexCoord3fv@		; `string'
PUBLIC	??_C@_0BC@DBFFFPNM@glMultiTexCoord3i@		; `string'
PUBLIC	??_C@_0BD@PGDBBFNA@glMultiTexCoord3iv@		; `string'
PUBLIC	??_C@_0BC@IBHIKFAH@glMultiTexCoord3s@		; `string'
PUBLIC	??_C@_0BD@OHIADDHG@glMultiTexCoord3sv@		; `string'
PUBLIC	??_C@_0BC@IBLEDHBE@glMultiTexCoord4d@		; `string'
PUBLIC	??_C@_0BD@GDDOLODK@glMultiTexCoord4dv@		; `string'
PUBLIC	??_C@_0BC@LDICFFJG@glMultiTexCoord4f@		; `string'
PUBLIC	??_C@_0BD@GALKGKFE@glMultiTexCoord4fv@		; `string'
PUBLIC	??_C@_0BC@DEBKEJFJ@glMultiTexCoord4i@		; `string'
PUBLIC	??_C@_0BD@GLOGCNGJ@glMultiTexCoord4iv@		; `string'
PUBLIC	??_C@_0BC@IEDHLDIC@glMultiTexCoord4s@		; `string'
PUBLIC	??_C@_0BD@HKFHALMP@glMultiTexCoord4sv@		; `string'
PUBLIC	??_C@_0BH@OJNLGHA@glLoadTransposeMatrixf@	; `string'
PUBLIC	??_C@_0BH@DMKLNEPC@glLoadTransposeMatrixd@	; `string'
PUBLIC	??_C@_0BH@DPBMPCNC@glMultTransposeMatrixf@	; `string'
PUBLIC	??_C@_0BH@NCKJAFA@glMultTransposeMatrixd@	; `string'
PUBLIC	??_C@_0BE@LLLCIIOO@glBlendFuncSeparate@		; `string'
PUBLIC	??_C@_0BC@IBABPJFA@glMultiDrawArrays@		; `string'
PUBLIC	??_C@_0BE@MPDFJJLL@glMultiDrawElements@		; `string'
PUBLIC	??_C@_0BC@FGOOEDO@glPointParameterf@		; `string'
PUBLIC	??_C@_0BD@LIABKNDP@glPointParameterfv@		; `string'
PUBLIC	??_C@_0BC@ICPGPIPB@glPointParameteri@		; `string'
PUBLIC	??_C@_0BD@LDFNOKAC@glPointParameteriv@		; `string'
PUBLIC	??_C@_0M@GCBCNNOF@glFogCoordf@			; `string'
PUBLIC	??_C@_0N@KJGHNKFK@glFogCoordfv@			; `string'
PUBLIC	??_C@_0M@FACELPGH@glFogCoordd@			; `string'
PUBLIC	??_C@_0N@KKODAODE@glFogCoorddv@			; `string'
PUBLIC	??_C@_0BC@GECGFLP@glFogCoordPointer@		; `string'
PUBLIC	??_C@_0BD@MCCHHBGK@glSecondaryColor3b@		; `string'
PUBLIC	??_C@_0BE@NEMAHBEH@glSecondaryColor3bv@		; `string'
PUBLIC	??_C@_0BD@JEHNNGOM@glSecondaryColor3d@		; `string'
PUBLIC	??_C@_0BE@NAENANPF@glSecondaryColor3dv@		; `string'
PUBLIC	??_C@_0BD@KGELLEGO@glSecondaryColor3f@		; `string'
PUBLIC	??_C@_0BE@NDMJNJJL@glSecondaryColor3fv@		; `string'
PUBLIC	??_C@_0BD@CBNDKIKB@glSecondaryColor3i@		; `string'
PUBLIC	??_C@_0BE@NIJFJOKG@glSecondaryColor3iv@		; `string'
PUBLIC	??_C@_0BD@JBPOFCHK@glSecondaryColor3s@		; `string'
PUBLIC	??_C@_0BE@MJCELIAA@glSecondaryColor3sv@		; `string'
PUBLIC	??_C@_0BE@ODAHBDOH@glSecondaryColor3ub@		; `string'
PUBLIC	??_C@_0BF@EHOIKOLI@glSecondaryColor3ubv@	; `string'
PUBLIC	??_C@_0BE@PDMKCM@glSecondaryColor3ui@		; `string'
PUBLIC	??_C@_0BF@ELLNEBFJ@glSecondaryColor3uiv@	; `string'
PUBLIC	??_C@_0BE@LANODAPH@glSecondaryColor3us@		; `string'
PUBLIC	??_C@_0BF@FKAMGHPP@glSecondaryColor3usv@	; `string'
PUBLIC	??_C@_0BI@EFMNDJOO@glSecondaryColorPointer@	; `string'
PUBLIC	??_C@_0O@JGNKBLNH@glWindowPos2d@		; `string'
PUBLIC	??_C@_0P@GBEEEDBM@glWindowPos2dv@		; `string'
PUBLIC	??_C@_0O@KEOMHJFF@glWindowPos2f@		; `string'
PUBLIC	??_C@_0P@GCMAJHHC@glWindowPos2fv@		; `string'
PUBLIC	??_C@_0O@CDHEGFJK@glWindowPos2i@		; `string'
PUBLIC	??_C@_0P@GJJMNAEP@glWindowPos2iv@		; `string'
PUBLIC	??_C@_0O@JDFJJPEB@glWindowPos2s@		; `string'
PUBLIC	??_C@_0P@HICNPGOJ@glWindowPos2sv@		; `string'
PUBLIC	??_C@_0O@JHBIHBOA@glWindowPos3d@		; `string'
PUBLIC	??_C@_0P@NJPICEHJ@glWindowPos3dv@		; `string'
PUBLIC	??_C@_0O@KFCOBDGC@glWindowPos3f@		; `string'
PUBLIC	??_C@_0P@NKHMPABH@glWindowPos3fv@		; `string'
PUBLIC	??_C@_0O@CCLGAPKN@glWindowPos3i@		; `string'
PUBLIC	??_C@_0P@NBCALHCK@glWindowPos3iv@		; `string'
PUBLIC	??_C@_0O@JCJLPFHG@glWindowPos3s@		; `string'
PUBLIC	??_C@_0P@MAJBJBIM@glWindowPos3sv@		; `string'
PUBLIC	??_C@_0N@PKBMFJDK@glBlendColor@			; `string'
PUBLIC	??_C@_0BA@PFHILPAN@glBlendEquation@		; `string'
PUBLIC	??_C@_0N@CJIGHHJ@glGenQueries@			; `string'
PUBLIC	??_C@_0BA@IOKEHMOH@glDeleteQueries@		; `string'
PUBLIC	??_C@_09CNNLCEBN@glIsQuery@			; `string'
PUBLIC	??_C@_0N@GIAGIGPA@glBeginQuery@			; `string'
PUBLIC	??_C@_0L@FLEBHIDM@glEndQuery@			; `string'
PUBLIC	??_C@_0N@BPACPFCI@glGetQueryiv@			; `string'
PUBLIC	??_C@_0BD@KMBBCJID@glGetQueryObjectiv@		; `string'
PUBLIC	??_C@_0BE@MNBBKJ@glGetQueryObjectuiv@		; `string'
PUBLIC	??_C@_0N@BONEPPLO@glBindBuffer@			; `string'
PUBLIC	??_C@_0BA@DMNLADIO@glDeleteBuffers@		; `string'
PUBLIC	??_C@_0N@LAOHBIBA@glGenBuffers@			; `string'
PUBLIC	??_C@_0L@KFPDMKNG@glIsBuffer@			; `string'
PUBLIC	??_C@_0N@JHHJMABP@glBufferData@			; `string'
PUBLIC	??_C@_0BA@GAJMDBBN@glBufferSubData@		; `string'
PUBLIC	??_C@_0BD@PNDAHMBO@glGetBufferSubData@		; `string'
PUBLIC	??_C@_0M@NNHDPACA@glMapBuffer@			; `string'
PUBLIC	??_C@_0O@OFGHBLEO@glUnmapBuffer@		; `string'
PUBLIC	??_C@_0BH@BMIEIFJP@glGetBufferParameteriv@	; `string'
PUBLIC	??_C@_0BE@KNJEIFMC@glGetBufferPointerv@		; `string'
PUBLIC	??_C@_0BI@JNHDNJAG@glBlendEquationSeparate@	; `string'
PUBLIC	??_C@_0O@COHJKDBH@glDrawBuffers@		; `string'
PUBLIC	??_C@_0BE@GAPLDNGF@glStencilOpSeparate@		; `string'
PUBLIC	??_C@_0BG@FCMNCEIA@glStencilFuncSeparate@	; `string'
PUBLIC	??_C@_0BG@MMKPIEJI@glStencilMaskSeparate@	; `string'
PUBLIC	??_C@_0P@LDMLEABL@glAttachShader@		; `string'
PUBLIC	??_C@_0BF@MHKEFIHM@glBindAttribLocation@	; `string'
PUBLIC	??_C@_0BA@DGIEGONF@glCompileShader@		; `string'
PUBLIC	??_C@_0BA@FLKLHNKP@glCreateProgram@		; `string'
PUBLIC	??_C@_0P@HGHBNC@glCreateShader@			; `string'
PUBLIC	??_C@_0BA@NKGCDOPO@glDeleteProgram@		; `string'
PUBLIC	??_C@_0P@HHCDONAG@glDeleteShader@		; `string'
PUBLIC	??_C@_0P@DJFJFCJL@glDetachShader@		; `string'
PUBLIC	??_C@_0BL@NKHLOFFF@glDisableVertexAttribArray@	; `string'
PUBLIC	??_C@_0BK@EHBAHNHE@glEnableVertexAttribArray@	; `string'
PUBLIC	??_C@_0BC@MBALAOHF@glGetActiveAttrib@		; `string'
PUBLIC	??_C@_0BD@NIMHLLKN@glGetActiveUniform@		; `string'
PUBLIC	??_C@_0BF@GHMDGFEM@glGetAttachedShaders@	; `string'
PUBLIC	??_C@_0BE@BEPGJDMM@glGetAttribLocation@		; `string'
PUBLIC	??_C@_0P@FMMDFLCO@glGetProgramiv@		; `string'
PUBLIC	??_C@_0BE@DHGHAJFL@glGetProgramInfoLog@		; `string'
PUBLIC	??_C@_0O@JBDFPDMG@glGetShaderiv@		; `string'
PUBLIC	??_C@_0BD@GIABBCMO@glGetShaderInfoLog@		; `string'
PUBLIC	??_C@_0BC@ELEIFJEL@glGetShaderSource@		; `string'
PUBLIC	??_C@_0BF@KIOPGICP@glGetUniformLocation@	; `string'
PUBLIC	??_C@_0P@DFCJIBG@glGetUniformfv@		; `string'
PUBLIC	??_C@_0P@IAONPCL@glGetUniformiv@		; `string'
PUBLIC	??_C@_0BE@HDPMJMIN@glGetVertexAttribdv@		; `string'
PUBLIC	??_C@_0BE@HAHIEIOD@glGetVertexAttribfv@		; `string'
PUBLIC	??_C@_0BE@HLCEAPNO@glGetVertexAttribiv@		; `string'
PUBLIC	??_C@_0BK@DOJMENLD@glGetVertexAttribPointerv@	; `string'
PUBLIC	??_C@_0M@INLOJDGO@glIsProgram@			; `string'
PUBLIC	??_C@_0L@MDDLFIHC@glIsShader@			; `string'
PUBLIC	??_C@_0O@PIOEEBPO@glLinkProgram@		; `string'
PUBLIC	??_C@_0P@DFHCPFMO@glShaderSource@		; `string'
PUBLIC	??_C@_0N@ICBDHBI@glUseProgram@			; `string'
PUBLIC	??_C@_0M@MLICAPOF@glUniform1f@			; `string'
PUBLIC	??_C@_0M@MJMELBLM@glUniform2f@			; `string'
PUBLIC	??_C@_0M@MIAGNLIL@glUniform3f@			; `string'
PUBLIC	??_C@_0M@MNEJMNAO@glUniform4f@			; `string'
PUBLIC	??_C@_0M@EMBKBDCK@glUniform1i@			; `string'
PUBLIC	??_C@_0M@EOFMKNHD@glUniform2i@			; `string'
PUBLIC	??_C@_0M@EPJOMHEE@glUniform3i@			; `string'
PUBLIC	??_C@_0M@EKNBNBMB@glUniform4i@			; `string'
PUBLIC	??_C@_0N@KJMOEKII@glUniform1fv@			; `string'
PUBLIC	??_C@_0N@LLHLOFGG@glUniform2fv@			; `string'
PUBLIC	??_C@_0N@DMHICAD@glUniform3fv@			; `string'
PUBLIC	??_C@_0N@JOBALKLK@glUniform4fv@			; `string'
PUBLIC	??_C@_0N@KCJCANLF@glUniform1iv@			; `string'
PUBLIC	??_C@_0N@LACHKCFL@glUniform2iv@			; `string'
PUBLIC	??_C@_0N@IJLMFDO@glUniform3iv@			; `string'
PUBLIC	??_C@_0N@JFEMPNIH@glUniform4iv@			; `string'
PUBLIC	??_C@_0BD@JIBJELHD@glUniformMatrix2fv@		; `string'
PUBLIC	??_C@_0BD@CAKFCMBG@glUniformMatrix3fv@		; `string'
PUBLIC	??_C@_0BD@LNHCBEKP@glUniformMatrix4fv@		; `string'
PUBLIC	??_C@_0BC@MAPGDLJK@glValidateProgram@		; `string'
PUBLIC	??_C@_0BB@PIOLPNPC@glVertexAttrib1d@		; `string'
PUBLIC	??_C@_0BC@CKCOKGLN@glVertexAttrib1dv@		; `string'
PUBLIC	??_C@_0BB@MKNNJPHA@glVertexAttrib1f@		; `string'
PUBLIC	??_C@_0BC@CJKKHCND@glVertexAttrib1fv@		; `string'
PUBLIC	??_C@_0BB@PNGIHJGE@glVertexAttrib1s@		; `string'
PUBLIC	??_C@_0BC@DDEHBDEI@glVertexAttrib1sv@		; `string'
PUBLIC	??_C@_0BB@PKKNEDKL@glVertexAttrib2d@		; `string'
PUBLIC	??_C@_0BC@DIJLAJFD@glVertexAttrib2dv@		; `string'
PUBLIC	??_C@_0BB@MIJLCBCJ@glVertexAttrib2f@		; `string'
PUBLIC	??_C@_0BC@DLBPNNDN@glVertexAttrib2fv@		; `string'
PUBLIC	??_C@_0BB@PPCOMHDN@glVertexAttrib2s@		; `string'
PUBLIC	??_C@_0BC@CBPCLMKG@glVertexAttrib2sv@		; `string'
PUBLIC	??_C@_0BB@PLGPCJJM@glVertexAttrib3d@		; `string'
PUBLIC	??_C@_0BC@IACHGODG@glVertexAttrib3dv@		; `string'
PUBLIC	??_C@_0BB@MJFJELBO@glVertexAttrib3f@		; `string'
PUBLIC	??_C@_0BC@IDKDLKFI@glVertexAttrib3fv@		; `string'
PUBLIC	??_C@_0BB@POOMKNAK@glVertexAttrib3s@		; `string'
PUBLIC	??_C@_0BC@JJEONLMD@glVertexAttrib3sv@		; `string'
PUBLIC	??_C@_0BD@NANPPEGB@glVertexAttrib4Nbv@		; `string'
PUBLIC	??_C@_0BD@NMIKBLIA@glVertexAttrib4Niv@		; `string'
PUBLIC	??_C@_0BD@MNDLDNCG@glVertexAttrib4Nsv@		; `string'
PUBLIC	??_C@_0BD@OHBIJGMB@glVertexAttrib4Nub@		; `string'
PUBLIC	??_C@_0BE@JFOBDEMA@glVertexAttrib4Nubv@		; `string'
PUBLIC	??_C@_0BE@JJLENLCB@glVertexAttrib4Nuiv@		; `string'
PUBLIC	??_C@_0BE@IIAFPNIH@glVertexAttrib4Nusv@		; `string'
PUBLIC	??_C@_0BC@BJHNCKDN@glVertexAttrib4bv@		; `string'
PUBLIC	??_C@_0BB@POCADPBJ@glVertexAttrib4d@		; `string'
PUBLIC	??_C@_0BC@BNPAFGIP@glVertexAttrib4dv@		; `string'
PUBLIC	??_C@_0BB@MMBGFNJL@glVertexAttrib4f@		; `string'
PUBLIC	??_C@_0BC@BOHEICOB@glVertexAttrib4fv@		; `string'
PUBLIC	??_C@_0BC@BFCIMFNM@glVertexAttrib4iv@		; `string'
PUBLIC	??_C@_0BB@PLKDLLIP@glVertexAttrib4s@		; `string'
PUBLIC	??_C@_0BC@EJJODHK@glVertexAttrib4sv@		; `string'
PUBLIC	??_C@_0BD@PHPFILMB@glVertexAttrib4ubv@		; `string'
PUBLIC	??_C@_0BD@PLKAGECA@glVertexAttrib4uiv@		; `string'
PUBLIC	??_C@_0BD@OKBBECIG@glVertexAttrib4usv@		; `string'
PUBLIC	??_C@_0BG@JPNNNPKG@glVertexAttribPointer@	; `string'
PUBLIC	??_C@_0BF@KDDJMCDK@glUniformMatrix2x3fv@	; `string'
PUBLIC	??_C@_0BF@NANJHGPK@glUniformMatrix3x2fv@	; `string'
PUBLIC	??_C@_0BF@DOOOPKID@glUniformMatrix2x4fv@	; `string'
PUBLIC	??_C@_0BF@MNNMEGEC@glUniformMatrix4x2fv@	; `string'
PUBLIC	??_C@_0BF@PFLCCJCG@glUniformMatrix3x4fv@	; `string'
PUBLIC	??_C@_0BF@HFGACBCH@glUniformMatrix4x3fv@	; `string'
PUBLIC	??_C@_0N@JHNNNJFG@glColorMaski@			; `string'
PUBLIC	??_C@_0BA@OAKNOBP@glGetBooleani_v@		; `string'
PUBLIC	??_C@_0BA@FKCNNMFO@glGetIntegeri_v@		; `string'
PUBLIC	??_C@_09IEGEGIEN@glEnablei@			; `string'
PUBLIC	??_C@_0L@BMJPGDDH@glDisablei@			; `string'
PUBLIC	??_C@_0N@IMGKGOKN@glIsEnabledi@			; `string'
PUBLIC	??_C@_0BJ@FHJKOECC@glBeginTransformFeedback@	; `string'
PUBLIC	??_C@_0BH@LCFLNNBH@glEndTransformFeedback@	; `string'
PUBLIC	??_C@_0BC@EEMMCHMB@glBindBufferRange@		; `string'
PUBLIC	??_C@_0BB@LDPKOCJI@glBindBufferBase@		; `string'
PUBLIC	??_C@_0BM@IJFAKBEF@glTransformFeedbackVaryings@	; `string'
PUBLIC	??_C@_0BO@ODFLPNG@glGetTransformFeedbackVarying@ ; `string'
PUBLIC	??_C@_0N@HLGAGIMI@glClampColor@			; `string'
PUBLIC	??_C@_0BJ@EHEPIEPF@glBeginConditionalRender@	; `string'
PUBLIC	??_C@_0BH@KCIOLNMA@glEndConditionalRender@	; `string'
PUBLIC	??_C@_0BH@NLOEHKCD@glVertexAttribIPointer@	; `string'
PUBLIC	??_C@_0BF@KPDNEONP@glGetVertexAttribIiv@	; `string'
PUBLIC	??_C@_0BG@GCBDCABB@glGetVertexAttribIuiv@	; `string'
PUBLIC	??_C@_0BC@CDIIMMAL@glVertexAttribI1i@		; `string'
PUBLIC	??_C@_0BC@CBMOHCFC@glVertexAttribI2i@		; `string'
PUBLIC	??_C@_0BC@CAAMBIGF@glVertexAttribI3i@		; `string'
PUBLIC	??_C@_0BC@CFEDAOOA@glVertexAttribI4i@		; `string'
PUBLIC	??_C@_0BD@DGPCNLLO@glVertexAttribI1ui@		; `string'
PUBLIC	??_C@_0BD@CEEHHEFA@glVertexAttribI2ui@		; `string'
PUBLIC	??_C@_0BD@JMPLBDDF@glVertexAttribI3ui@		; `string'
PUBLIC	??_C@_0BD@BCMCLIM@glVertexAttribI4ui@		; `string'
PUBLIC	??_C@_0BD@OOJEIPDE@glVertexAttribI1iv@		; `string'
PUBLIC	??_C@_0BD@PMCBCANK@glVertexAttribI2iv@		; `string'
PUBLIC	??_C@_0BD@EEJNEHLP@glVertexAttribI3iv@		; `string'
PUBLIC	??_C@_0BD@NJEKHPAG@glVertexAttribI4iv@		; `string'
PUBLIC	??_C@_0BE@FFIKLCCA@glVertexAttribI1uiv@		; `string'
PUBLIC	??_C@_0BE@BCCKMIPA@glVertexAttribI2uiv@		; `string'
PUBLIC	??_C@_0BE@CPEKOBEA@glVertexAttribI3uiv@		; `string'
PUBLIC	??_C@_0BE@JNGKDNFA@glVertexAttribI4uiv@		; `string'
PUBLIC	??_C@_0BD@NFBPJAOH@glVertexAttribI4bv@		; `string'
PUBLIC	??_C@_0BD@MIPLFJKA@glVertexAttribI4sv@		; `string'
PUBLIC	??_C@_0BE@JBDPNCLB@glVertexAttribI4ubv@		; `string'
PUBLIC	??_C@_0BE@IMNLBLPG@glVertexAttribI4usv@		; `string'
PUBLIC	??_C@_0BA@NIGECFIF@glGetUniformuiv@		; `string'
PUBLIC	??_C@_0BH@DLJLAGBA@glBindFragDataLocation@	; `string'
PUBLIC	??_C@_0BG@NDOIGAMC@glGetFragDataLocation@	; `string'
PUBLIC	??_C@_0N@HKPEFJDP@glUniform1ui@			; `string'
PUBLIC	??_C@_0N@GIEBPGNB@glUniform2ui@			; `string'
PUBLIC	??_C@_0N@NAPNJBLE@glUniform3ui@			; `string'
PUBLIC	??_C@_0N@ENCKKJAN@glUniform4ui@			; `string'
PUBLIC	??_C@_0O@MPHJAHBE@glUniform1uiv@		; `string'
PUBLIC	??_C@_0O@IINJHNME@glUniform2uiv@		; `string'
PUBLIC	??_C@_0O@LFLJFEHE@glUniform3uiv@		; `string'
PUBLIC	??_C@_0O@HJJIIGE@glUniform4uiv@			; `string'
PUBLIC	??_C@_0BC@MAFJKEHB@glTexParameterIiv@		; `string'
PUBLIC	??_C@_0BD@FDBCMKBE@glTexParameterIuiv@		; `string'
PUBLIC	??_C@_0BF@ODBJFHDD@glGetTexParameterIiv@	; `string'
PUBLIC	??_C@_0BG@MLODKKFL@glGetTexParameterIuiv@	; `string'
PUBLIC	??_C@_0BA@CGCJAEIN@glClearBufferiv@		; `string'
PUBLIC	??_C@_0BB@OHPPAEID@glClearBufferuiv@		; `string'
PUBLIC	??_C@_0BA@CNHFEDLA@glClearBufferfv@		; `string'
PUBLIC	??_C@_0BA@OACPENCO@glClearBufferfi@		; `string'
PUBLIC	??_C@_0N@PILJCBOD@glGetStringi@			; `string'
PUBLIC	??_C@_0BB@DGGHKKOH@glIsRenderbuffer@		; `string'
PUBLIC	??_C@_0BD@EPOPJGFA@glBindRenderbuffer@		; `string'
PUBLIC	??_C@_0BG@KKOKEJDE@glDeleteRenderbuffers@	; `string'
PUBLIC	??_C@_0BD@MIGEDNGJ@glGenRenderbuffers@		; `string'
PUBLIC	??_C@_0BG@EOIILGMJ@glRenderbufferStorage@	; `string'
PUBLIC	??_C@_0BN@FGKAECKO@glGetRenderbufferParameteriv@ ; `string'
PUBLIC	??_C@_0BA@FGBIJCNH@glIsFramebuffer@		; `string'
PUBLIC	??_C@_0BC@CJMIBNO@glBindFramebuffer@		; `string'
PUBLIC	??_C@_0BF@DJNJENP@glDeleteFramebuffers@		; `string'
PUBLIC	??_C@_0BC@FAPEBGID@glGenFramebuffers@		; `string'
PUBLIC	??_C@_0BJ@GIOLHEAD@glCheckFramebufferStatus@	; `string'
PUBLIC	??_C@_0BH@JAMDNNBM@glFramebufferTexture1D@	; `string'
PUBLIC	??_C@_0BH@JCIFGDEF@glFramebufferTexture2D@	; `string'
PUBLIC	??_C@_0BH@JDEHAJHC@glFramebufferTexture3D@	; `string'
PUBLIC	??_C@_0BK@OJDINAOA@glFramebufferRenderbuffer@	; `string'
PUBLIC	??_C@_0CG@KLDGJEON@glGetFramebufferAttachmentParam@ ; `string'
PUBLIC	??_C@_0BB@BHNIMGDM@glGenerateMipmap@		; `string'
PUBLIC	??_C@_0BC@OANBDDEP@glBlitFramebuffer@		; `string'
PUBLIC	??_C@_0CB@HNONLGJE@glRenderbufferStorageMultisampl@ ; `string'
PUBLIC	??_C@_0BK@NIHIDBBO@glFramebufferTextureLayer@	; `string'
PUBLIC	??_C@_0BB@EOHJGBIO@glMapBufferRange@		; `string'
PUBLIC	??_C@_0BJ@NCDMGHKF@glFlushMappedBufferRange@	; `string'
PUBLIC	??_C@_0BC@LHBAHFAN@glBindVertexArray@		; `string'
PUBLIC	??_C@_0BF@BMPCJLEF@glDeleteVertexArrays@	; `string'
PUBLIC	??_C@_0BC@EPJLBJBJ@glGenVertexArrays@		; `string'
PUBLIC	??_C@_0BA@ODJEGGAE@glIsVertexArray@		; `string'
PUBLIC	??_C@_0BG@HIOFINAN@glDrawArraysInstanced@	; `string'
PUBLIC	??_C@_0BI@CGJENFBH@glDrawElementsInstanced@	; `string'
PUBLIC	??_C@_0M@IIMBBALL@glTexBuffer@			; `string'
PUBLIC	??_C@_0BI@LJDLNGAF@glPrimitiveRestartIndex@	; `string'
PUBLIC	??_C@_0BE@EPKABDOG@glCopyBufferSubData@		; `string'
PUBLIC	??_C@_0BE@MDPMIDEE@glGetUniformIndices@		; `string'
PUBLIC	??_C@_0BG@JEHIMPCG@glGetActiveUniformsiv@	; `string'
PUBLIC	??_C@_0BH@EGGFHKJJ@glGetActiveUniformName@	; `string'
PUBLIC	??_C@_0BH@CBDIMHHE@glGetUniformBlockIndex@	; `string'
PUBLIC	??_C@_0BK@DMHOPJGL@glGetActiveUniformBlockiv@	; `string'
PUBLIC	??_C@_0BM@KEMCJPAJ@glGetActiveUniformBlockName@	; `string'
PUBLIC	??_C@_0BG@BOLEKKCP@glUniformBlockBinding@	; `string'
PUBLIC	??_C@_0BJ@LFMMIAHA@glDrawElementsBaseVertex@	; `string'
PUBLIC	??_C@_0BO@KBDDBILP@glDrawRangeElementsBaseVertex@ ; `string'
PUBLIC	??_C@_0CC@KLOIIKNA@glDrawElementsInstancedBaseVert@ ; `string'
PUBLIC	??_C@_0BO@NAPFJEEK@glMultiDrawElementsBaseVertex@ ; `string'
PUBLIC	??_C@_0BC@ECOAPEBI@glProvokingVertex@		; `string'
PUBLIC	??_C@_0M@EFGFPFLP@glFenceSync@			; `string'
PUBLIC	??_C@_08JPIIHJEO@glIsSync@			; `string'
PUBLIC	??_C@_0N@PIFDNDFG@glDeleteSync@			; `string'
PUBLIC	??_C@_0BB@KDMPGJAC@glClientWaitSync@		; `string'
PUBLIC	??_C@_0L@MHLOGHGO@glWaitSync@			; `string'
PUBLIC	??_C@_0BA@INMBOHGL@glGetInteger64v@		; `string'
PUBLIC	??_C@_0M@MPEEOPIN@glGetSynciv@			; `string'
PUBLIC	??_C@_0BC@KOJILIEC@glGetInteger64i_v@		; `string'
PUBLIC	??_C@_0BJ@KKBIDGPP@glGetBufferParameteri64v@	; `string'
PUBLIC	??_C@_0BF@ENLMLILA@glFramebufferTexture@	; `string'
PUBLIC	??_C@_0BI@FHDFLFA@glTexImage2DMultisample@	; `string'
PUBLIC	??_C@_0BI@JIHMLKCG@glTexImage3DMultisample@	; `string'
PUBLIC	??_C@_0BD@DHLIMGN@glGetMultisamplefv@		; `string'
PUBLIC	??_C@_0O@JNHBCHMB@glSampleMaski@		; `string'
PUBLIC	??_C@_0BO@POJBGCGG@glBindFragDataLocationIndexed@ ; `string'
PUBLIC	??_C@_0BD@COCJFEOH@glGetFragDataIndex@		; `string'
PUBLIC	??_C@_0O@EMMLGGLG@glGenSamplers@		; `string'
PUBLIC	??_C@_0BB@FLPAOEOO@glDeleteSamplers@		; `string'
PUBLIC	??_C@_0M@LAJKHOKJ@glIsSampler@			; `string'
PUBLIC	??_C@_0O@PDEILAPG@glBindSampler@		; `string'
PUBLIC	??_C@_0BE@KBCBMPJO@glSamplerParameteri@		; `string'
PUBLIC	??_C@_0BF@GOHDEBPM@glSamplerParameteriv@	; `string'
PUBLIC	??_C@_0BE@CGLJNDFB@glSamplerParameterf@		; `string'
PUBLIC	??_C@_0BF@GFCPAGMB@glSamplerParameterfv@	; `string'
PUBLIC	??_C@_0BG@HKEIFIHF@glSamplerParameterIiv@	; `string'
PUBLIC	??_C@_0BH@FEMFBPPB@glSamplerParameterIuiv@	; `string'
PUBLIC	??_C@_0BI@FECAOLJP@glGetSamplerParameteriv@	; `string'
PUBLIC	??_C@_0BJ@KOMJDLDN@glGetSamplerParameterIiv@	; `string'
PUBLIC	??_C@_0BI@FPHMKMKC@glGetSamplerParameterfv@	; `string'
PUBLIC	??_C@_0BK@CMBGFHDA@glGetSamplerParameterIuiv@	; `string'
PUBLIC	??_C@_0P@KALICDIM@glQueryCounter@		; `string'
PUBLIC	??_C@_0BF@JDAPDEPE@glGetQueryObjecti64v@	; `string'
PUBLIC	??_C@_0BG@NEGGOMJO@glGetQueryObjectui64v@	; `string'
PUBLIC	??_C@_0BG@NEBMAEHM@glVertexAttribDivisor@	; `string'
PUBLIC	??_C@_0BD@FLACCOEN@glVertexAttribP1ui@		; `string'
PUBLIC	??_C@_0BE@HBFDOBHD@glVertexAttribP1uiv@		; `string'
PUBLIC	??_C@_0BD@EJLHIBKD@glVertexAttribP2ui@		; `string'
PUBLIC	??_C@_0BE@DGPDJLKD@glVertexAttribP2uiv@		; `string'
PUBLIC	??_C@_0BD@PBALOGMG@glVertexAttribP3ui@		; `string'
PUBLIC	??_C@_0BE@LJDLCBD@glVertexAttribP3uiv@		; `string'
PUBLIC	??_C@_0BD@GMNMNOHP@glVertexAttribP4ui@		; `string'
PUBLIC	??_C@_0BE@LJLDGOAD@glVertexAttribP4uiv@		; `string'
PUBLIC	??_C@_0N@EFBCIBMC@glVertexP2ui@			; `string'
PUBLIC	??_C@_0O@MEKGPGN@glVertexP2uiv@			; `string'
PUBLIC	??_C@_0N@PNKOOGKH@glVertexP3ui@			; `string'
PUBLIC	??_C@_0O@DBCKEGNN@glVertexP3uiv@		; `string'
PUBLIC	??_C@_0N@GAHJNOBO@glVertexP4ui@			; `string'
PUBLIC	??_C@_0O@IDAKJKMN@glVertexP4uiv@		; `string'
PUBLIC	??_C@_0P@OLJHLLHJ@glTexCoordP1ui@		; `string'
PUBLIC	??_C@_0BA@FAFHIAFD@glTexCoordP1uiv@		; `string'
PUBLIC	??_C@_0P@PJCCBEJH@glTexCoordP2ui@		; `string'
PUBLIC	??_C@_0BA@BHPHPKID@glTexCoordP2uiv@		; `string'
PUBLIC	??_C@_0P@EBJOHDPC@glTexCoordP3ui@		; `string'
PUBLIC	??_C@_0BA@CKJHNDDD@glTexCoordP3uiv@		; `string'
PUBLIC	??_C@_0P@NMEJELEL@glTexCoordP4ui@		; `string'
PUBLIC	??_C@_0BA@JILHAPCD@glTexCoordP4uiv@		; `string'
PUBLIC	??_C@_0BE@OAHHKHKG@glMultiTexCoordP1ui@		; `string'
PUBLIC	??_C@_0BF@EGDAKPAK@glMultiTexCoordP1uiv@	; `string'
PUBLIC	??_C@_0BE@PCMCAIEI@glMultiTexCoordP2ui@		; `string'
PUBLIC	??_C@_0BF@BJANFNK@glMultiTexCoordP2uiv@		; `string'
PUBLIC	??_C@_0BE@EKHOGPCN@glMultiTexCoordP3ui@		; `string'
PUBLIC	??_C@_0BF@DMPAPMGK@glMultiTexCoordP3uiv@	; `string'
PUBLIC	??_C@_0BE@NHKJFHJE@glMultiTexCoordP4ui@		; `string'
PUBLIC	??_C@_0BF@IONACAHK@glMultiTexCoordP4uiv@	; `string'
PUBLIC	??_C@_0N@PBEFBNHO@glNormalP3ui@			; `string'
PUBLIC	??_C@_0O@MOCJMHFG@glNormalP3uiv@		; `string'
PUBLIC	??_C@_0M@PEKBINNN@glColorP3ui@			; `string'
PUBLIC	??_C@_0N@IBPDNBJE@glColorP3uiv@			; `string'
PUBLIC	??_C@_0M@GJHGLFGE@glColorP4ui@			; `string'
PUBLIC	??_C@_0N@DDNDANIE@glColorP4uiv@			; `string'
PUBLIC	??_C@_0BF@PDDGBPKP@glSecondaryColorP3ui@	; `string'
PUBLIC	??_C@_0BG@DPPPFGBG@glSecondaryColorP3uiv@	; `string'
PUBLIC	??_C@_0O@ENGHJHNB@OpenGL?5ES?9CM?5@		; `string'
PUBLIC	??_C@_0O@EMKFPNOG@OpenGL?5ES?9CL?5@		; `string'
PUBLIC	??_C@_0L@JLFHOCGA@OpenGL?5ES?5@			; `string'
PUBLIC	??_C@_05KBEOJPB@?$CFd?4?$CFd@			; `string'
EXTRN	__imp____stdio_common_vsscanf:PROC
EXTRN	__imp__free:PROC
EXTRN	__imp__malloc:PROC
EXTRN	_memcpy:PROC
EXTRN	_strlen:PROC
EXTRN	__imp__strncmp:PROC
EXTRN	__imp__FreeLibrary@4:PROC
EXTRN	__imp__GetProcAddress@8:PROC
EXTRN	__imp__LoadLibraryW@4:PROC
EXTRN	@_RTC_CheckStackVars@8:PROC
EXTRN	@__CheckForDebuggerJustMyCode@4:PROC
EXTRN	@__security_check_cookie@4:PROC
EXTRN	__RTC_CheckEsp:PROC
EXTRN	__RTC_InitBase:PROC
EXTRN	__RTC_Shutdown:PROC
EXTRN	___security_cookie:DWORD
_DATA	SEGMENT
COMM	?_OptionsStorage@?1??__local_stdio_scanf_options@@9@9:QWORD							; `__local_stdio_scanf_options'::`2'::_OptionsStorage
_DATA	ENDS
_BSS	SEGMENT
_libGL	DD	01H DUP (?)
_gladGetProcAddressPtr DD 01H DUP (?)
_max_loaded_major DD 01H DUP (?)
_max_loaded_minor DD 01H DUP (?)
_exts	DD	01H DUP (?)
_num_exts_i DD	01H DUP (?)
_exts_i	DD	01H DUP (?)
_BSS	ENDS
;	COMDAT rtc$TMZ
rtc$TMZ	SEGMENT
__RTC_Shutdown.rtc$TMZ DD FLAT:__RTC_Shutdown
rtc$TMZ	ENDS
;	COMDAT rtc$IMZ
rtc$IMZ	SEGMENT
__RTC_InitBase.rtc$IMZ DD FLAT:__RTC_InitBase
rtc$IMZ	ENDS
;	COMDAT ??_C@_05KBEOJPB@?$CFd?4?$CFd@
CONST	SEGMENT
??_C@_05KBEOJPB@?$CFd?4?$CFd@ DB '%d.%d', 00H		; `string'
CONST	ENDS
;	COMDAT ??_C@_0L@JLFHOCGA@OpenGL?5ES?5@
CONST	SEGMENT
??_C@_0L@JLFHOCGA@OpenGL?5ES?5@ DB 'OpenGL ES ', 00H	; `string'
CONST	ENDS
;	COMDAT ??_C@_0O@EMKFPNOG@OpenGL?5ES?9CL?5@
CONST	SEGMENT
??_C@_0O@EMKFPNOG@OpenGL?5ES?9CL?5@ DB 'OpenGL ES-CL ', 00H ; `string'
CONST	ENDS
;	COMDAT ??_C@_0O@ENGHJHNB@OpenGL?5ES?9CM?5@
CONST	SEGMENT
??_C@_0O@ENGHJHNB@OpenGL?5ES?9CM?5@ DB 'OpenGL ES-CM ', 00H ; `string'
CONST	ENDS
;	COMDAT ??_C@_0BG@DPPPFGBG@glSecondaryColorP3uiv@
CONST	SEGMENT
??_C@_0BG@DPPPFGBG@glSecondaryColorP3uiv@ DB 'glSecondaryColorP3uiv', 00H ; `string'
CONST	ENDS
;	COMDAT ??_C@_0BF@PDDGBPKP@glSecondaryColorP3ui@
CONST	SEGMENT
??_C@_0BF@PDDGBPKP@glSecondaryColorP3ui@ DB 'glSecondaryColorP3ui', 00H ; `string'
CONST	ENDS
;	COMDAT ??_C@_0N@DDNDANIE@glColorP4uiv@
CONST	SEGMENT
??_C@_0N@DDNDANIE@glColorP4uiv@ DB 'glColorP4uiv', 00H	; `string'
CONST	ENDS
;	COMDAT ??_C@_0M@GJHGLFGE@glColorP4ui@
CONST	SEGMENT
??_C@_0M@GJHGLFGE@glColorP4ui@ DB 'glColorP4ui', 00H	; `string'
CONST	ENDS
;	COMDAT ??_C@_0N@IBPDNBJE@glColorP3uiv@
CONST	SEGMENT
??_C@_0N@IBPDNBJE@glColorP3uiv@ DB 'glColorP3uiv', 00H	; `string'
CONST	ENDS
;	COMDAT ??_C@_0M@PEKBINNN@glColorP3ui@
CONST	SEGMENT
??_C@_0M@PEKBINNN@glColorP3ui@ DB 'glColorP3ui', 00H	; `string'
CONST	ENDS
;	COMDAT ??_C@_0O@MOCJMHFG@glNormalP3uiv@
CONST	SEGMENT
??_C@_0O@MOCJMHFG@glNormalP3uiv@ DB 'glNormalP3uiv', 00H ; `string'
CONST	ENDS
;	COMDAT ??_C@_0N@PBEFBNHO@glNormalP3ui@
CONST	SEGMENT
??_C@_0N@PBEFBNHO@glNormalP3ui@ DB 'glNormalP3ui', 00H	; `string'
CONST	ENDS
;	COMDAT ??_C@_0BF@IONACAHK@glMultiTexCoordP4uiv@
CONST	SEGMENT
??_C@_0BF@IONACAHK@glMultiTexCoordP4uiv@ DB 'glMultiTexCoordP4uiv', 00H ; `string'
CONST	ENDS
;	COMDAT ??_C@_0BE@NHKJFHJE@glMultiTexCoordP4ui@
CONST	SEGMENT
??_C@_0BE@NHKJFHJE@glMultiTexCoordP4ui@ DB 'glMultiTexCoordP4ui', 00H ; `string'
CONST	ENDS
;	COMDAT ??_C@_0BF@DMPAPMGK@glMultiTexCoordP3uiv@
CONST	SEGMENT
??_C@_0BF@DMPAPMGK@glMultiTexCoordP3uiv@ DB 'glMultiTexCoordP3uiv', 00H ; `string'
CONST	ENDS
;	COMDAT ??_C@_0BE@EKHOGPCN@glMultiTexCoordP3ui@
CONST	SEGMENT
??_C@_0BE@EKHOGPCN@glMultiTexCoordP3ui@ DB 'glMultiTexCoordP3ui', 00H ; `string'
CONST	ENDS
;	COMDAT ??_C@_0BF@BJANFNK@glMultiTexCoordP2uiv@
CONST	SEGMENT
??_C@_0BF@BJANFNK@glMultiTexCoordP2uiv@ DB 'glMultiTexCoordP2uiv', 00H ; `string'
CONST	ENDS
;	COMDAT ??_C@_0BE@PCMCAIEI@glMultiTexCoordP2ui@
CONST	SEGMENT
??_C@_0BE@PCMCAIEI@glMultiTexCoordP2ui@ DB 'glMultiTexCoordP2ui', 00H ; `string'
CONST	ENDS
;	COMDAT ??_C@_0BF@EGDAKPAK@glMultiTexCoordP1uiv@
CONST	SEGMENT
??_C@_0BF@EGDAKPAK@glMultiTexCoordP1uiv@ DB 'glMultiTexCoordP1uiv', 00H ; `string'
CONST	ENDS
;	COMDAT ??_C@_0BE@OAHHKHKG@glMultiTexCoordP1ui@
CONST	SEGMENT
??_C@_0BE@OAHHKHKG@glMultiTexCoordP1ui@ DB 'glMultiTexCoordP1ui', 00H ; `string'
CONST	ENDS
;	COMDAT ??_C@_0BA@JILHAPCD@glTexCoordP4uiv@
CONST	SEGMENT
??_C@_0BA@JILHAPCD@glTexCoordP4uiv@ DB 'glTexCoordP4uiv', 00H ; `string'
CONST	ENDS
;	COMDAT ??_C@_0P@NMEJELEL@glTexCoordP4ui@
CONST	SEGMENT
??_C@_0P@NMEJELEL@glTexCoordP4ui@ DB 'glTexCoordP4ui', 00H ; `string'
CONST	ENDS
;	COMDAT ??_C@_0BA@CKJHNDDD@glTexCoordP3uiv@
CONST	SEGMENT
??_C@_0BA@CKJHNDDD@glTexCoordP3uiv@ DB 'glTexCoordP3uiv', 00H ; `string'
CONST	ENDS
;	COMDAT ??_C@_0P@EBJOHDPC@glTexCoordP3ui@
CONST	SEGMENT
??_C@_0P@EBJOHDPC@glTexCoordP3ui@ DB 'glTexCoordP3ui', 00H ; `string'
CONST	ENDS
;	COMDAT ??_C@_0BA@BHPHPKID@glTexCoordP2uiv@
CONST	SEGMENT
??_C@_0BA@BHPHPKID@glTexCoordP2uiv@ DB 'glTexCoordP2uiv', 00H ; `string'
CONST	ENDS
;	COMDAT ??_C@_0P@PJCCBEJH@glTexCoordP2ui@
CONST	SEGMENT
??_C@_0P@PJCCBEJH@glTexCoordP2ui@ DB 'glTexCoordP2ui', 00H ; `string'
CONST	ENDS
;	COMDAT ??_C@_0BA@FAFHIAFD@glTexCoordP1uiv@
CONST	SEGMENT
??_C@_0BA@FAFHIAFD@glTexCoordP1uiv@ DB 'glTexCoordP1uiv', 00H ; `string'
CONST	ENDS
;	COMDAT ??_C@_0P@OLJHLLHJ@glTexCoordP1ui@
CONST	SEGMENT
??_C@_0P@OLJHLLHJ@glTexCoordP1ui@ DB 'glTexCoordP1ui', 00H ; `string'
CONST	ENDS
;	COMDAT ??_C@_0O@IDAKJKMN@glVertexP4uiv@
CONST	SEGMENT
??_C@_0O@IDAKJKMN@glVertexP4uiv@ DB 'glVertexP4uiv', 00H ; `string'
CONST	ENDS
;	COMDAT ??_C@_0N@GAHJNOBO@glVertexP4ui@
CONST	SEGMENT
??_C@_0N@GAHJNOBO@glVertexP4ui@ DB 'glVertexP4ui', 00H	; `string'
CONST	ENDS
;	COMDAT ??_C@_0O@DBCKEGNN@glVertexP3uiv@
CONST	SEGMENT
??_C@_0O@DBCKEGNN@glVertexP3uiv@ DB 'glVertexP3uiv', 00H ; `string'
CONST	ENDS
;	COMDAT ??_C@_0N@PNKOOGKH@glVertexP3ui@
CONST	SEGMENT
??_C@_0N@PNKOOGKH@glVertexP3ui@ DB 'glVertexP3ui', 00H	; `string'
CONST	ENDS
;	COMDAT ??_C@_0O@MEKGPGN@glVertexP2uiv@
CONST	SEGMENT
??_C@_0O@MEKGPGN@glVertexP2uiv@ DB 'glVertexP2uiv', 00H	; `string'
CONST	ENDS
;	COMDAT ??_C@_0N@EFBCIBMC@glVertexP2ui@
CONST	SEGMENT
??_C@_0N@EFBCIBMC@glVertexP2ui@ DB 'glVertexP2ui', 00H	; `string'
CONST	ENDS
;	COMDAT ??_C@_0BE@LJLDGOAD@glVertexAttribP4uiv@
CONST	SEGMENT
??_C@_0BE@LJLDGOAD@glVertexAttribP4uiv@ DB 'glVertexAttribP4uiv', 00H ; `string'
CONST	ENDS
;	COMDAT ??_C@_0BD@GMNMNOHP@glVertexAttribP4ui@
CONST	SEGMENT
??_C@_0BD@GMNMNOHP@glVertexAttribP4ui@ DB 'glVertexAttribP4ui', 00H ; `string'
CONST	ENDS
;	COMDAT ??_C@_0BE@LJDLCBD@glVertexAttribP3uiv@
CONST	SEGMENT
??_C@_0BE@LJDLCBD@glVertexAttribP3uiv@ DB 'glVertexAttribP3uiv', 00H ; `string'
CONST	ENDS
;	COMDAT ??_C@_0BD@PBALOGMG@glVertexAttribP3ui@
CONST	SEGMENT
??_C@_0BD@PBALOGMG@glVertexAttribP3ui@ DB 'glVertexAttribP3ui', 00H ; `string'
CONST	ENDS
;	COMDAT ??_C@_0BE@DGPDJLKD@glVertexAttribP2uiv@
CONST	SEGMENT
??_C@_0BE@DGPDJLKD@glVertexAttribP2uiv@ DB 'glVertexAttribP2uiv', 00H ; `string'
CONST	ENDS
;	COMDAT ??_C@_0BD@EJLHIBKD@glVertexAttribP2ui@
CONST	SEGMENT
??_C@_0BD@EJLHIBKD@glVertexAttribP2ui@ DB 'glVertexAttribP2ui', 00H ; `string'
CONST	ENDS
;	COMDAT ??_C@_0BE@HBFDOBHD@glVertexAttribP1uiv@
CONST	SEGMENT
??_C@_0BE@HBFDOBHD@glVertexAttribP1uiv@ DB 'glVertexAttribP1uiv', 00H ; `string'
CONST	ENDS
;	COMDAT ??_C@_0BD@FLACCOEN@glVertexAttribP1ui@
CONST	SEGMENT
??_C@_0BD@FLACCOEN@glVertexAttribP1ui@ DB 'glVertexAttribP1ui', 00H ; `string'
CONST	ENDS
;	COMDAT ??_C@_0BG@NEBMAEHM@glVertexAttribDivisor@
CONST	SEGMENT
??_C@_0BG@NEBMAEHM@glVertexAttribDivisor@ DB 'glVertexAttribDivisor', 00H ; `string'
CONST	ENDS
;	COMDAT ??_C@_0BG@NEGGOMJO@glGetQueryObjectui64v@
CONST	SEGMENT
??_C@_0BG@NEGGOMJO@glGetQueryObjectui64v@ DB 'glGetQueryObjectui64v', 00H ; `string'
CONST	ENDS
;	COMDAT ??_C@_0BF@JDAPDEPE@glGetQueryObjecti64v@
CONST	SEGMENT
??_C@_0BF@JDAPDEPE@glGetQueryObjecti64v@ DB 'glGetQueryObjecti64v', 00H ; `string'
CONST	ENDS
;	COMDAT ??_C@_0P@KALICDIM@glQueryCounter@
CONST	SEGMENT
??_C@_0P@KALICDIM@glQueryCounter@ DB 'glQueryCounter', 00H ; `string'
CONST	ENDS
;	COMDAT ??_C@_0BK@CMBGFHDA@glGetSamplerParameterIuiv@
CONST	SEGMENT
??_C@_0BK@CMBGFHDA@glGetSamplerParameterIuiv@ DB 'glGetSamplerParameterIu'
	DB	'iv', 00H					; `string'
CONST	ENDS
;	COMDAT ??_C@_0BI@FPHMKMKC@glGetSamplerParameterfv@
CONST	SEGMENT
??_C@_0BI@FPHMKMKC@glGetSamplerParameterfv@ DB 'glGetSamplerParameterfv', 00H ; `string'
CONST	ENDS
;	COMDAT ??_C@_0BJ@KOMJDLDN@glGetSamplerParameterIiv@
CONST	SEGMENT
??_C@_0BJ@KOMJDLDN@glGetSamplerParameterIiv@ DB 'glGetSamplerParameterIiv'
	DB	00H						; `string'
CONST	ENDS
;	COMDAT ??_C@_0BI@FECAOLJP@glGetSamplerParameteriv@
CONST	SEGMENT
??_C@_0BI@FECAOLJP@glGetSamplerParameteriv@ DB 'glGetSamplerParameteriv', 00H ; `string'
CONST	ENDS
;	COMDAT ??_C@_0BH@FEMFBPPB@glSamplerParameterIuiv@
CONST	SEGMENT
??_C@_0BH@FEMFBPPB@glSamplerParameterIuiv@ DB 'glSamplerParameterIuiv', 00H ; `string'
CONST	ENDS
;	COMDAT ??_C@_0BG@HKEIFIHF@glSamplerParameterIiv@
CONST	SEGMENT
??_C@_0BG@HKEIFIHF@glSamplerParameterIiv@ DB 'glSamplerParameterIiv', 00H ; `string'
CONST	ENDS
;	COMDAT ??_C@_0BF@GFCPAGMB@glSamplerParameterfv@
CONST	SEGMENT
??_C@_0BF@GFCPAGMB@glSamplerParameterfv@ DB 'glSamplerParameterfv', 00H ; `string'
CONST	ENDS
;	COMDAT ??_C@_0BE@CGLJNDFB@glSamplerParameterf@
CONST	SEGMENT
??_C@_0BE@CGLJNDFB@glSamplerParameterf@ DB 'glSamplerParameterf', 00H ; `string'
CONST	ENDS
;	COMDAT ??_C@_0BF@GOHDEBPM@glSamplerParameteriv@
CONST	SEGMENT
??_C@_0BF@GOHDEBPM@glSamplerParameteriv@ DB 'glSamplerParameteriv', 00H ; `string'
CONST	ENDS
;	COMDAT ??_C@_0BE@KBCBMPJO@glSamplerParameteri@
CONST	SEGMENT
??_C@_0BE@KBCBMPJO@glSamplerParameteri@ DB 'glSamplerParameteri', 00H ; `string'
CONST	ENDS
;	COMDAT ??_C@_0O@PDEILAPG@glBindSampler@
CONST	SEGMENT
??_C@_0O@PDEILAPG@glBindSampler@ DB 'glBindSampler', 00H ; `string'
CONST	ENDS
;	COMDAT ??_C@_0M@LAJKHOKJ@glIsSampler@
CONST	SEGMENT
??_C@_0M@LAJKHOKJ@glIsSampler@ DB 'glIsSampler', 00H	; `string'
CONST	ENDS
;	COMDAT ??_C@_0BB@FLPAOEOO@glDeleteSamplers@
CONST	SEGMENT
??_C@_0BB@FLPAOEOO@glDeleteSamplers@ DB 'glDeleteSamplers', 00H ; `string'
CONST	ENDS
;	COMDAT ??_C@_0O@EMMLGGLG@glGenSamplers@
CONST	SEGMENT
??_C@_0O@EMMLGGLG@glGenSamplers@ DB 'glGenSamplers', 00H ; `string'
CONST	ENDS
;	COMDAT ??_C@_0BD@COCJFEOH@glGetFragDataIndex@
CONST	SEGMENT
??_C@_0BD@COCJFEOH@glGetFragDataIndex@ DB 'glGetFragDataIndex', 00H ; `string'
CONST	ENDS
;	COMDAT ??_C@_0BO@POJBGCGG@glBindFragDataLocationIndexed@
CONST	SEGMENT
??_C@_0BO@POJBGCGG@glBindFragDataLocationIndexed@ DB 'glBindFragDataLocat'
	DB	'ionIndexed', 00H				; `string'
CONST	ENDS
;	COMDAT ??_C@_0O@JNHBCHMB@glSampleMaski@
CONST	SEGMENT
??_C@_0O@JNHBCHMB@glSampleMaski@ DB 'glSampleMaski', 00H ; `string'
CONST	ENDS
;	COMDAT ??_C@_0BD@DHLIMGN@glGetMultisamplefv@
CONST	SEGMENT
??_C@_0BD@DHLIMGN@glGetMultisamplefv@ DB 'glGetMultisamplefv', 00H ; `string'
CONST	ENDS
;	COMDAT ??_C@_0BI@JIHMLKCG@glTexImage3DMultisample@
CONST	SEGMENT
??_C@_0BI@JIHMLKCG@glTexImage3DMultisample@ DB 'glTexImage3DMultisample', 00H ; `string'
CONST	ENDS
;	COMDAT ??_C@_0BI@FHDFLFA@glTexImage2DMultisample@
CONST	SEGMENT
??_C@_0BI@FHDFLFA@glTexImage2DMultisample@ DB 'glTexImage2DMultisample', 00H ; `string'
CONST	ENDS
;	COMDAT ??_C@_0BF@ENLMLILA@glFramebufferTexture@
CONST	SEGMENT
??_C@_0BF@ENLMLILA@glFramebufferTexture@ DB 'glFramebufferTexture', 00H ; `string'
CONST	ENDS
;	COMDAT ??_C@_0BJ@KKBIDGPP@glGetBufferParameteri64v@
CONST	SEGMENT
??_C@_0BJ@KKBIDGPP@glGetBufferParameteri64v@ DB 'glGetBufferParameteri64v'
	DB	00H						; `string'
CONST	ENDS
;	COMDAT ??_C@_0BC@KOJILIEC@glGetInteger64i_v@
CONST	SEGMENT
??_C@_0BC@KOJILIEC@glGetInteger64i_v@ DB 'glGetInteger64i_v', 00H ; `string'
CONST	ENDS
;	COMDAT ??_C@_0M@MPEEOPIN@glGetSynciv@
CONST	SEGMENT
??_C@_0M@MPEEOPIN@glGetSynciv@ DB 'glGetSynciv', 00H	; `string'
CONST	ENDS
;	COMDAT ??_C@_0BA@INMBOHGL@glGetInteger64v@
CONST	SEGMENT
??_C@_0BA@INMBOHGL@glGetInteger64v@ DB 'glGetInteger64v', 00H ; `string'
CONST	ENDS
;	COMDAT ??_C@_0L@MHLOGHGO@glWaitSync@
CONST	SEGMENT
??_C@_0L@MHLOGHGO@glWaitSync@ DB 'glWaitSync', 00H	; `string'
CONST	ENDS
;	COMDAT ??_C@_0BB@KDMPGJAC@glClientWaitSync@
CONST	SEGMENT
??_C@_0BB@KDMPGJAC@glClientWaitSync@ DB 'glClientWaitSync', 00H ; `string'
CONST	ENDS
;	COMDAT ??_C@_0N@PIFDNDFG@glDeleteSync@
CONST	SEGMENT
??_C@_0N@PIFDNDFG@glDeleteSync@ DB 'glDeleteSync', 00H	; `string'
CONST	ENDS
;	COMDAT ??_C@_08JPIIHJEO@glIsSync@
CONST	SEGMENT
??_C@_08JPIIHJEO@glIsSync@ DB 'glIsSync', 00H		; `string'
CONST	ENDS
;	COMDAT ??_C@_0M@EFGFPFLP@glFenceSync@
CONST	SEGMENT
??_C@_0M@EFGFPFLP@glFenceSync@ DB 'glFenceSync', 00H	; `string'
CONST	ENDS
;	COMDAT ??_C@_0BC@ECOAPEBI@glProvokingVertex@
CONST	SEGMENT
??_C@_0BC@ECOAPEBI@glProvokingVertex@ DB 'glProvokingVertex', 00H ; `string'
CONST	ENDS
;	COMDAT ??_C@_0BO@NAPFJEEK@glMultiDrawElementsBaseVertex@
CONST	SEGMENT
??_C@_0BO@NAPFJEEK@glMultiDrawElementsBaseVertex@ DB 'glMultiDrawElements'
	DB	'BaseVertex', 00H				; `string'
CONST	ENDS
;	COMDAT ??_C@_0CC@KLOIIKNA@glDrawElementsInstancedBaseVert@
CONST	SEGMENT
??_C@_0CC@KLOIIKNA@glDrawElementsInstancedBaseVert@ DB 'glDrawElementsIns'
	DB	'tancedBaseVertex', 00H			; `string'
CONST	ENDS
;	COMDAT ??_C@_0BO@KBDDBILP@glDrawRangeElementsBaseVertex@
CONST	SEGMENT
??_C@_0BO@KBDDBILP@glDrawRangeElementsBaseVertex@ DB 'glDrawRangeElements'
	DB	'BaseVertex', 00H				; `string'
CONST	ENDS
;	COMDAT ??_C@_0BJ@LFMMIAHA@glDrawElementsBaseVertex@
CONST	SEGMENT
??_C@_0BJ@LFMMIAHA@glDrawElementsBaseVertex@ DB 'glDrawElementsBaseVertex'
	DB	00H						; `string'
CONST	ENDS
;	COMDAT ??_C@_0BG@BOLEKKCP@glUniformBlockBinding@
CONST	SEGMENT
??_C@_0BG@BOLEKKCP@glUniformBlockBinding@ DB 'glUniformBlockBinding', 00H ; `string'
CONST	ENDS
;	COMDAT ??_C@_0BM@KEMCJPAJ@glGetActiveUniformBlockName@
CONST	SEGMENT
??_C@_0BM@KEMCJPAJ@glGetActiveUniformBlockName@ DB 'glGetActiveUniformBlo'
	DB	'ckName', 00H				; `string'
CONST	ENDS
;	COMDAT ??_C@_0BK@DMHOPJGL@glGetActiveUniformBlockiv@
CONST	SEGMENT
??_C@_0BK@DMHOPJGL@glGetActiveUniformBlockiv@ DB 'glGetActiveUniformBlock'
	DB	'iv', 00H					; `string'
CONST	ENDS
;	COMDAT ??_C@_0BH@CBDIMHHE@glGetUniformBlockIndex@
CONST	SEGMENT
??_C@_0BH@CBDIMHHE@glGetUniformBlockIndex@ DB 'glGetUniformBlockIndex', 00H ; `string'
CONST	ENDS
;	COMDAT ??_C@_0BH@EGGFHKJJ@glGetActiveUniformName@
CONST	SEGMENT
??_C@_0BH@EGGFHKJJ@glGetActiveUniformName@ DB 'glGetActiveUniformName', 00H ; `string'
CONST	ENDS
;	COMDAT ??_C@_0BG@JEHIMPCG@glGetActiveUniformsiv@
CONST	SEGMENT
??_C@_0BG@JEHIMPCG@glGetActiveUniformsiv@ DB 'glGetActiveUniformsiv', 00H ; `string'
CONST	ENDS
;	COMDAT ??_C@_0BE@MDPMIDEE@glGetUniformIndices@
CONST	SEGMENT
??_C@_0BE@MDPMIDEE@glGetUniformIndices@ DB 'glGetUniformIndices', 00H ; `string'
CONST	ENDS
;	COMDAT ??_C@_0BE@EPKABDOG@glCopyBufferSubData@
CONST	SEGMENT
??_C@_0BE@EPKABDOG@glCopyBufferSubData@ DB 'glCopyBufferSubData', 00H ; `string'
CONST	ENDS
;	COMDAT ??_C@_0BI@LJDLNGAF@glPrimitiveRestartIndex@
CONST	SEGMENT
??_C@_0BI@LJDLNGAF@glPrimitiveRestartIndex@ DB 'glPrimitiveRestartIndex', 00H ; `string'
CONST	ENDS
;	COMDAT ??_C@_0M@IIMBBALL@glTexBuffer@
CONST	SEGMENT
??_C@_0M@IIMBBALL@glTexBuffer@ DB 'glTexBuffer', 00H	; `string'
CONST	ENDS
;	COMDAT ??_C@_0BI@CGJENFBH@glDrawElementsInstanced@
CONST	SEGMENT
??_C@_0BI@CGJENFBH@glDrawElementsInstanced@ DB 'glDrawElementsInstanced', 00H ; `string'
CONST	ENDS
;	COMDAT ??_C@_0BG@HIOFINAN@glDrawArraysInstanced@
CONST	SEGMENT
??_C@_0BG@HIOFINAN@glDrawArraysInstanced@ DB 'glDrawArraysInstanced', 00H ; `string'
CONST	ENDS
;	COMDAT ??_C@_0BA@ODJEGGAE@glIsVertexArray@
CONST	SEGMENT
??_C@_0BA@ODJEGGAE@glIsVertexArray@ DB 'glIsVertexArray', 00H ; `string'
CONST	ENDS
;	COMDAT ??_C@_0BC@EPJLBJBJ@glGenVertexArrays@
CONST	SEGMENT
??_C@_0BC@EPJLBJBJ@glGenVertexArrays@ DB 'glGenVertexArrays', 00H ; `string'
CONST	ENDS
;	COMDAT ??_C@_0BF@BMPCJLEF@glDeleteVertexArrays@
CONST	SEGMENT
??_C@_0BF@BMPCJLEF@glDeleteVertexArrays@ DB 'glDeleteVertexArrays', 00H ; `string'
CONST	ENDS
;	COMDAT ??_C@_0BC@LHBAHFAN@glBindVertexArray@
CONST	SEGMENT
??_C@_0BC@LHBAHFAN@glBindVertexArray@ DB 'glBindVertexArray', 00H ; `string'
CONST	ENDS
;	COMDAT ??_C@_0BJ@NCDMGHKF@glFlushMappedBufferRange@
CONST	SEGMENT
??_C@_0BJ@NCDMGHKF@glFlushMappedBufferRange@ DB 'glFlushMappedBufferRange'
	DB	00H						; `string'
CONST	ENDS
;	COMDAT ??_C@_0BB@EOHJGBIO@glMapBufferRange@
CONST	SEGMENT
??_C@_0BB@EOHJGBIO@glMapBufferRange@ DB 'glMapBufferRange', 00H ; `string'
CONST	ENDS
;	COMDAT ??_C@_0BK@NIHIDBBO@glFramebufferTextureLayer@
CONST	SEGMENT
??_C@_0BK@NIHIDBBO@glFramebufferTextureLayer@ DB 'glFramebufferTextureLay'
	DB	'er', 00H					; `string'
CONST	ENDS
;	COMDAT ??_C@_0CB@HNONLGJE@glRenderbufferStorageMultisampl@
CONST	SEGMENT
??_C@_0CB@HNONLGJE@glRenderbufferStorageMultisampl@ DB 'glRenderbufferSto'
	DB	'rageMultisample', 00H			; `string'
CONST	ENDS
;	COMDAT ??_C@_0BC@OANBDDEP@glBlitFramebuffer@
CONST	SEGMENT
??_C@_0BC@OANBDDEP@glBlitFramebuffer@ DB 'glBlitFramebuffer', 00H ; `string'
CONST	ENDS
;	COMDAT ??_C@_0BB@BHNIMGDM@glGenerateMipmap@
CONST	SEGMENT
??_C@_0BB@BHNIMGDM@glGenerateMipmap@ DB 'glGenerateMipmap', 00H ; `string'
CONST	ENDS
;	COMDAT ??_C@_0CG@KLDGJEON@glGetFramebufferAttachmentParam@
CONST	SEGMENT
??_C@_0CG@KLDGJEON@glGetFramebufferAttachmentParam@ DB 'glGetFramebufferA'
	DB	'ttachmentParameteriv', 00H			; `string'
CONST	ENDS
;	COMDAT ??_C@_0BK@OJDINAOA@glFramebufferRenderbuffer@
CONST	SEGMENT
??_C@_0BK@OJDINAOA@glFramebufferRenderbuffer@ DB 'glFramebufferRenderbuff'
	DB	'er', 00H					; `string'
CONST	ENDS
;	COMDAT ??_C@_0BH@JDEHAJHC@glFramebufferTexture3D@
CONST	SEGMENT
??_C@_0BH@JDEHAJHC@glFramebufferTexture3D@ DB 'glFramebufferTexture3D', 00H ; `string'
CONST	ENDS
;	COMDAT ??_C@_0BH@JCIFGDEF@glFramebufferTexture2D@
CONST	SEGMENT
??_C@_0BH@JCIFGDEF@glFramebufferTexture2D@ DB 'glFramebufferTexture2D', 00H ; `string'
CONST	ENDS
;	COMDAT ??_C@_0BH@JAMDNNBM@glFramebufferTexture1D@
CONST	SEGMENT
??_C@_0BH@JAMDNNBM@glFramebufferTexture1D@ DB 'glFramebufferTexture1D', 00H ; `string'
CONST	ENDS
;	COMDAT ??_C@_0BJ@GIOLHEAD@glCheckFramebufferStatus@
CONST	SEGMENT
??_C@_0BJ@GIOLHEAD@glCheckFramebufferStatus@ DB 'glCheckFramebufferStatus'
	DB	00H						; `string'
CONST	ENDS
;	COMDAT ??_C@_0BC@FAPEBGID@glGenFramebuffers@
CONST	SEGMENT
??_C@_0BC@FAPEBGID@glGenFramebuffers@ DB 'glGenFramebuffers', 00H ; `string'
CONST	ENDS
;	COMDAT ??_C@_0BF@DJNJENP@glDeleteFramebuffers@
CONST	SEGMENT
??_C@_0BF@DJNJENP@glDeleteFramebuffers@ DB 'glDeleteFramebuffers', 00H ; `string'
CONST	ENDS
;	COMDAT ??_C@_0BC@CJMIBNO@glBindFramebuffer@
CONST	SEGMENT
??_C@_0BC@CJMIBNO@glBindFramebuffer@ DB 'glBindFramebuffer', 00H ; `string'
CONST	ENDS
;	COMDAT ??_C@_0BA@FGBIJCNH@glIsFramebuffer@
CONST	SEGMENT
??_C@_0BA@FGBIJCNH@glIsFramebuffer@ DB 'glIsFramebuffer', 00H ; `string'
CONST	ENDS
;	COMDAT ??_C@_0BN@FGKAECKO@glGetRenderbufferParameteriv@
CONST	SEGMENT
??_C@_0BN@FGKAECKO@glGetRenderbufferParameteriv@ DB 'glGetRenderbufferPar'
	DB	'ameteriv', 00H				; `string'
CONST	ENDS
;	COMDAT ??_C@_0BG@EOIILGMJ@glRenderbufferStorage@
CONST	SEGMENT
??_C@_0BG@EOIILGMJ@glRenderbufferStorage@ DB 'glRenderbufferStorage', 00H ; `string'
CONST	ENDS
;	COMDAT ??_C@_0BD@MIGEDNGJ@glGenRenderbuffers@
CONST	SEGMENT
??_C@_0BD@MIGEDNGJ@glGenRenderbuffers@ DB 'glGenRenderbuffers', 00H ; `string'
CONST	ENDS
;	COMDAT ??_C@_0BG@KKOKEJDE@glDeleteRenderbuffers@
CONST	SEGMENT
??_C@_0BG@KKOKEJDE@glDeleteRenderbuffers@ DB 'glDeleteRenderbuffers', 00H ; `string'
CONST	ENDS
;	COMDAT ??_C@_0BD@EPOPJGFA@glBindRenderbuffer@
CONST	SEGMENT
??_C@_0BD@EPOPJGFA@glBindRenderbuffer@ DB 'glBindRenderbuffer', 00H ; `string'
CONST	ENDS
;	COMDAT ??_C@_0BB@DGGHKKOH@glIsRenderbuffer@
CONST	SEGMENT
??_C@_0BB@DGGHKKOH@glIsRenderbuffer@ DB 'glIsRenderbuffer', 00H ; `string'
CONST	ENDS
;	COMDAT ??_C@_0N@PILJCBOD@glGetStringi@
CONST	SEGMENT
??_C@_0N@PILJCBOD@glGetStringi@ DB 'glGetStringi', 00H	; `string'
CONST	ENDS
;	COMDAT ??_C@_0BA@OACPENCO@glClearBufferfi@
CONST	SEGMENT
??_C@_0BA@OACPENCO@glClearBufferfi@ DB 'glClearBufferfi', 00H ; `string'
CONST	ENDS
;	COMDAT ??_C@_0BA@CNHFEDLA@glClearBufferfv@
CONST	SEGMENT
??_C@_0BA@CNHFEDLA@glClearBufferfv@ DB 'glClearBufferfv', 00H ; `string'
CONST	ENDS
;	COMDAT ??_C@_0BB@OHPPAEID@glClearBufferuiv@
CONST	SEGMENT
??_C@_0BB@OHPPAEID@glClearBufferuiv@ DB 'glClearBufferuiv', 00H ; `string'
CONST	ENDS
;	COMDAT ??_C@_0BA@CGCJAEIN@glClearBufferiv@
CONST	SEGMENT
??_C@_0BA@CGCJAEIN@glClearBufferiv@ DB 'glClearBufferiv', 00H ; `string'
CONST	ENDS
;	COMDAT ??_C@_0BG@MLODKKFL@glGetTexParameterIuiv@
CONST	SEGMENT
??_C@_0BG@MLODKKFL@glGetTexParameterIuiv@ DB 'glGetTexParameterIuiv', 00H ; `string'
CONST	ENDS
;	COMDAT ??_C@_0BF@ODBJFHDD@glGetTexParameterIiv@
CONST	SEGMENT
??_C@_0BF@ODBJFHDD@glGetTexParameterIiv@ DB 'glGetTexParameterIiv', 00H ; `string'
CONST	ENDS
;	COMDAT ??_C@_0BD@FDBCMKBE@glTexParameterIuiv@
CONST	SEGMENT
??_C@_0BD@FDBCMKBE@glTexParameterIuiv@ DB 'glTexParameterIuiv', 00H ; `string'
CONST	ENDS
;	COMDAT ??_C@_0BC@MAFJKEHB@glTexParameterIiv@
CONST	SEGMENT
??_C@_0BC@MAFJKEHB@glTexParameterIiv@ DB 'glTexParameterIiv', 00H ; `string'
CONST	ENDS
;	COMDAT ??_C@_0O@HJJIIGE@glUniform4uiv@
CONST	SEGMENT
??_C@_0O@HJJIIGE@glUniform4uiv@ DB 'glUniform4uiv', 00H	; `string'
CONST	ENDS
;	COMDAT ??_C@_0O@LFLJFEHE@glUniform3uiv@
CONST	SEGMENT
??_C@_0O@LFLJFEHE@glUniform3uiv@ DB 'glUniform3uiv', 00H ; `string'
CONST	ENDS
;	COMDAT ??_C@_0O@IINJHNME@glUniform2uiv@
CONST	SEGMENT
??_C@_0O@IINJHNME@glUniform2uiv@ DB 'glUniform2uiv', 00H ; `string'
CONST	ENDS
;	COMDAT ??_C@_0O@MPHJAHBE@glUniform1uiv@
CONST	SEGMENT
??_C@_0O@MPHJAHBE@glUniform1uiv@ DB 'glUniform1uiv', 00H ; `string'
CONST	ENDS
;	COMDAT ??_C@_0N@ENCKKJAN@glUniform4ui@
CONST	SEGMENT
??_C@_0N@ENCKKJAN@glUniform4ui@ DB 'glUniform4ui', 00H	; `string'
CONST	ENDS
;	COMDAT ??_C@_0N@NAPNJBLE@glUniform3ui@
CONST	SEGMENT
??_C@_0N@NAPNJBLE@glUniform3ui@ DB 'glUniform3ui', 00H	; `string'
CONST	ENDS
;	COMDAT ??_C@_0N@GIEBPGNB@glUniform2ui@
CONST	SEGMENT
??_C@_0N@GIEBPGNB@glUniform2ui@ DB 'glUniform2ui', 00H	; `string'
CONST	ENDS
;	COMDAT ??_C@_0N@HKPEFJDP@glUniform1ui@
CONST	SEGMENT
??_C@_0N@HKPEFJDP@glUniform1ui@ DB 'glUniform1ui', 00H	; `string'
CONST	ENDS
;	COMDAT ??_C@_0BG@NDOIGAMC@glGetFragDataLocation@
CONST	SEGMENT
??_C@_0BG@NDOIGAMC@glGetFragDataLocation@ DB 'glGetFragDataLocation', 00H ; `string'
CONST	ENDS
;	COMDAT ??_C@_0BH@DLJLAGBA@glBindFragDataLocation@
CONST	SEGMENT
??_C@_0BH@DLJLAGBA@glBindFragDataLocation@ DB 'glBindFragDataLocation', 00H ; `string'
CONST	ENDS
;	COMDAT ??_C@_0BA@NIGECFIF@glGetUniformuiv@
CONST	SEGMENT
??_C@_0BA@NIGECFIF@glGetUniformuiv@ DB 'glGetUniformuiv', 00H ; `string'
CONST	ENDS
;	COMDAT ??_C@_0BE@IMNLBLPG@glVertexAttribI4usv@
CONST	SEGMENT
??_C@_0BE@IMNLBLPG@glVertexAttribI4usv@ DB 'glVertexAttribI4usv', 00H ; `string'
CONST	ENDS
;	COMDAT ??_C@_0BE@JBDPNCLB@glVertexAttribI4ubv@
CONST	SEGMENT
??_C@_0BE@JBDPNCLB@glVertexAttribI4ubv@ DB 'glVertexAttribI4ubv', 00H ; `string'
CONST	ENDS
;	COMDAT ??_C@_0BD@MIPLFJKA@glVertexAttribI4sv@
CONST	SEGMENT
??_C@_0BD@MIPLFJKA@glVertexAttribI4sv@ DB 'glVertexAttribI4sv', 00H ; `string'
CONST	ENDS
;	COMDAT ??_C@_0BD@NFBPJAOH@glVertexAttribI4bv@
CONST	SEGMENT
??_C@_0BD@NFBPJAOH@glVertexAttribI4bv@ DB 'glVertexAttribI4bv', 00H ; `string'
CONST	ENDS
;	COMDAT ??_C@_0BE@JNGKDNFA@glVertexAttribI4uiv@
CONST	SEGMENT
??_C@_0BE@JNGKDNFA@glVertexAttribI4uiv@ DB 'glVertexAttribI4uiv', 00H ; `string'
CONST	ENDS
;	COMDAT ??_C@_0BE@CPEKOBEA@glVertexAttribI3uiv@
CONST	SEGMENT
??_C@_0BE@CPEKOBEA@glVertexAttribI3uiv@ DB 'glVertexAttribI3uiv', 00H ; `string'
CONST	ENDS
;	COMDAT ??_C@_0BE@BCCKMIPA@glVertexAttribI2uiv@
CONST	SEGMENT
??_C@_0BE@BCCKMIPA@glVertexAttribI2uiv@ DB 'glVertexAttribI2uiv', 00H ; `string'
CONST	ENDS
;	COMDAT ??_C@_0BE@FFIKLCCA@glVertexAttribI1uiv@
CONST	SEGMENT
??_C@_0BE@FFIKLCCA@glVertexAttribI1uiv@ DB 'glVertexAttribI1uiv', 00H ; `string'
CONST	ENDS
;	COMDAT ??_C@_0BD@NJEKHPAG@glVertexAttribI4iv@
CONST	SEGMENT
??_C@_0BD@NJEKHPAG@glVertexAttribI4iv@ DB 'glVertexAttribI4iv', 00H ; `string'
CONST	ENDS
;	COMDAT ??_C@_0BD@EEJNEHLP@glVertexAttribI3iv@
CONST	SEGMENT
??_C@_0BD@EEJNEHLP@glVertexAttribI3iv@ DB 'glVertexAttribI3iv', 00H ; `string'
CONST	ENDS
;	COMDAT ??_C@_0BD@PMCBCANK@glVertexAttribI2iv@
CONST	SEGMENT
??_C@_0BD@PMCBCANK@glVertexAttribI2iv@ DB 'glVertexAttribI2iv', 00H ; `string'
CONST	ENDS
;	COMDAT ??_C@_0BD@OOJEIPDE@glVertexAttribI1iv@
CONST	SEGMENT
??_C@_0BD@OOJEIPDE@glVertexAttribI1iv@ DB 'glVertexAttribI1iv', 00H ; `string'
CONST	ENDS
;	COMDAT ??_C@_0BD@BCMCLIM@glVertexAttribI4ui@
CONST	SEGMENT
??_C@_0BD@BCMCLIM@glVertexAttribI4ui@ DB 'glVertexAttribI4ui', 00H ; `string'
CONST	ENDS
;	COMDAT ??_C@_0BD@JMPLBDDF@glVertexAttribI3ui@
CONST	SEGMENT
??_C@_0BD@JMPLBDDF@glVertexAttribI3ui@ DB 'glVertexAttribI3ui', 00H ; `string'
CONST	ENDS
;	COMDAT ??_C@_0BD@CEEHHEFA@glVertexAttribI2ui@
CONST	SEGMENT
??_C@_0BD@CEEHHEFA@glVertexAttribI2ui@ DB 'glVertexAttribI2ui', 00H ; `string'
CONST	ENDS
;	COMDAT ??_C@_0BD@DGPCNLLO@glVertexAttribI1ui@
CONST	SEGMENT
??_C@_0BD@DGPCNLLO@glVertexAttribI1ui@ DB 'glVertexAttribI1ui', 00H ; `string'
CONST	ENDS
;	COMDAT ??_C@_0BC@CFEDAOOA@glVertexAttribI4i@
CONST	SEGMENT
??_C@_0BC@CFEDAOOA@glVertexAttribI4i@ DB 'glVertexAttribI4i', 00H ; `string'
CONST	ENDS
;	COMDAT ??_C@_0BC@CAAMBIGF@glVertexAttribI3i@
CONST	SEGMENT
??_C@_0BC@CAAMBIGF@glVertexAttribI3i@ DB 'glVertexAttribI3i', 00H ; `string'
CONST	ENDS
;	COMDAT ??_C@_0BC@CBMOHCFC@glVertexAttribI2i@
CONST	SEGMENT
??_C@_0BC@CBMOHCFC@glVertexAttribI2i@ DB 'glVertexAttribI2i', 00H ; `string'
CONST	ENDS
;	COMDAT ??_C@_0BC@CDIIMMAL@glVertexAttribI1i@
CONST	SEGMENT
??_C@_0BC@CDIIMMAL@glVertexAttribI1i@ DB 'glVertexAttribI1i', 00H ; `string'
CONST	ENDS
;	COMDAT ??_C@_0BG@GCBDCABB@glGetVertexAttribIuiv@
CONST	SEGMENT
??_C@_0BG@GCBDCABB@glGetVertexAttribIuiv@ DB 'glGetVertexAttribIuiv', 00H ; `string'
CONST	ENDS
;	COMDAT ??_C@_0BF@KPDNEONP@glGetVertexAttribIiv@
CONST	SEGMENT
??_C@_0BF@KPDNEONP@glGetVertexAttribIiv@ DB 'glGetVertexAttribIiv', 00H ; `string'
CONST	ENDS
;	COMDAT ??_C@_0BH@NLOEHKCD@glVertexAttribIPointer@
CONST	SEGMENT
??_C@_0BH@NLOEHKCD@glVertexAttribIPointer@ DB 'glVertexAttribIPointer', 00H ; `string'
CONST	ENDS
;	COMDAT ??_C@_0BH@KCIOLNMA@glEndConditionalRender@
CONST	SEGMENT
??_C@_0BH@KCIOLNMA@glEndConditionalRender@ DB 'glEndConditionalRender', 00H ; `string'
CONST	ENDS
;	COMDAT ??_C@_0BJ@EHEPIEPF@glBeginConditionalRender@
CONST	SEGMENT
??_C@_0BJ@EHEPIEPF@glBeginConditionalRender@ DB 'glBeginConditionalRender'
	DB	00H						; `string'
CONST	ENDS
;	COMDAT ??_C@_0N@HLGAGIMI@glClampColor@
CONST	SEGMENT
??_C@_0N@HLGAGIMI@glClampColor@ DB 'glClampColor', 00H	; `string'
CONST	ENDS
;	COMDAT ??_C@_0BO@ODFLPNG@glGetTransformFeedbackVarying@
CONST	SEGMENT
??_C@_0BO@ODFLPNG@glGetTransformFeedbackVarying@ DB 'glGetTransformFeedba'
	DB	'ckVarying', 00H				; `string'
CONST	ENDS
;	COMDAT ??_C@_0BM@IJFAKBEF@glTransformFeedbackVaryings@
CONST	SEGMENT
??_C@_0BM@IJFAKBEF@glTransformFeedbackVaryings@ DB 'glTransformFeedbackVa'
	DB	'ryings', 00H				; `string'
CONST	ENDS
;	COMDAT ??_C@_0BB@LDPKOCJI@glBindBufferBase@
CONST	SEGMENT
??_C@_0BB@LDPKOCJI@glBindBufferBase@ DB 'glBindBufferBase', 00H ; `string'
CONST	ENDS
;	COMDAT ??_C@_0BC@EEMMCHMB@glBindBufferRange@
CONST	SEGMENT
??_C@_0BC@EEMMCHMB@glBindBufferRange@ DB 'glBindBufferRange', 00H ; `string'
CONST	ENDS
;	COMDAT ??_C@_0BH@LCFLNNBH@glEndTransformFeedback@
CONST	SEGMENT
??_C@_0BH@LCFLNNBH@glEndTransformFeedback@ DB 'glEndTransformFeedback', 00H ; `string'
CONST	ENDS
;	COMDAT ??_C@_0BJ@FHJKOECC@glBeginTransformFeedback@
CONST	SEGMENT
??_C@_0BJ@FHJKOECC@glBeginTransformFeedback@ DB 'glBeginTransformFeedback'
	DB	00H						; `string'
CONST	ENDS
;	COMDAT ??_C@_0N@IMGKGOKN@glIsEnabledi@
CONST	SEGMENT
??_C@_0N@IMGKGOKN@glIsEnabledi@ DB 'glIsEnabledi', 00H	; `string'
CONST	ENDS
;	COMDAT ??_C@_0L@BMJPGDDH@glDisablei@
CONST	SEGMENT
??_C@_0L@BMJPGDDH@glDisablei@ DB 'glDisablei', 00H	; `string'
CONST	ENDS
;	COMDAT ??_C@_09IEGEGIEN@glEnablei@
CONST	SEGMENT
??_C@_09IEGEGIEN@glEnablei@ DB 'glEnablei', 00H		; `string'
CONST	ENDS
;	COMDAT ??_C@_0BA@FKCNNMFO@glGetIntegeri_v@
CONST	SEGMENT
??_C@_0BA@FKCNNMFO@glGetIntegeri_v@ DB 'glGetIntegeri_v', 00H ; `string'
CONST	ENDS
;	COMDAT ??_C@_0BA@OAKNOBP@glGetBooleani_v@
CONST	SEGMENT
??_C@_0BA@OAKNOBP@glGetBooleani_v@ DB 'glGetBooleani_v', 00H ; `string'
CONST	ENDS
;	COMDAT ??_C@_0N@JHNNNJFG@glColorMaski@
CONST	SEGMENT
??_C@_0N@JHNNNJFG@glColorMaski@ DB 'glColorMaski', 00H	; `string'
CONST	ENDS
;	COMDAT ??_C@_0BF@HFGACBCH@glUniformMatrix4x3fv@
CONST	SEGMENT
??_C@_0BF@HFGACBCH@glUniformMatrix4x3fv@ DB 'glUniformMatrix4x3fv', 00H ; `string'
CONST	ENDS
;	COMDAT ??_C@_0BF@PFLCCJCG@glUniformMatrix3x4fv@
CONST	SEGMENT
??_C@_0BF@PFLCCJCG@glUniformMatrix3x4fv@ DB 'glUniformMatrix3x4fv', 00H ; `string'
CONST	ENDS
;	COMDAT ??_C@_0BF@MNNMEGEC@glUniformMatrix4x2fv@
CONST	SEGMENT
??_C@_0BF@MNNMEGEC@glUniformMatrix4x2fv@ DB 'glUniformMatrix4x2fv', 00H ; `string'
CONST	ENDS
;	COMDAT ??_C@_0BF@DOOOPKID@glUniformMatrix2x4fv@
CONST	SEGMENT
??_C@_0BF@DOOOPKID@glUniformMatrix2x4fv@ DB 'glUniformMatrix2x4fv', 00H ; `string'
CONST	ENDS
;	COMDAT ??_C@_0BF@NANJHGPK@glUniformMatrix3x2fv@
CONST	SEGMENT
??_C@_0BF@NANJHGPK@glUniformMatrix3x2fv@ DB 'glUniformMatrix3x2fv', 00H ; `string'
CONST	ENDS
;	COMDAT ??_C@_0BF@KDDJMCDK@glUniformMatrix2x3fv@
CONST	SEGMENT
??_C@_0BF@KDDJMCDK@glUniformMatrix2x3fv@ DB 'glUniformMatrix2x3fv', 00H ; `string'
CONST	ENDS
;	COMDAT ??_C@_0BG@JPNNNPKG@glVertexAttribPointer@
CONST	SEGMENT
??_C@_0BG@JPNNNPKG@glVertexAttribPointer@ DB 'glVertexAttribPointer', 00H ; `string'
CONST	ENDS
;	COMDAT ??_C@_0BD@OKBBECIG@glVertexAttrib4usv@
CONST	SEGMENT
??_C@_0BD@OKBBECIG@glVertexAttrib4usv@ DB 'glVertexAttrib4usv', 00H ; `string'
CONST	ENDS
;	COMDAT ??_C@_0BD@PLKAGECA@glVertexAttrib4uiv@
CONST	SEGMENT
??_C@_0BD@PLKAGECA@glVertexAttrib4uiv@ DB 'glVertexAttrib4uiv', 00H ; `string'
CONST	ENDS
;	COMDAT ??_C@_0BD@PHPFILMB@glVertexAttrib4ubv@
CONST	SEGMENT
??_C@_0BD@PHPFILMB@glVertexAttrib4ubv@ DB 'glVertexAttrib4ubv', 00H ; `string'
CONST	ENDS
;	COMDAT ??_C@_0BC@EJJODHK@glVertexAttrib4sv@
CONST	SEGMENT
??_C@_0BC@EJJODHK@glVertexAttrib4sv@ DB 'glVertexAttrib4sv', 00H ; `string'
CONST	ENDS
;	COMDAT ??_C@_0BB@PLKDLLIP@glVertexAttrib4s@
CONST	SEGMENT
??_C@_0BB@PLKDLLIP@glVertexAttrib4s@ DB 'glVertexAttrib4s', 00H ; `string'
CONST	ENDS
;	COMDAT ??_C@_0BC@BFCIMFNM@glVertexAttrib4iv@
CONST	SEGMENT
??_C@_0BC@BFCIMFNM@glVertexAttrib4iv@ DB 'glVertexAttrib4iv', 00H ; `string'
CONST	ENDS
;	COMDAT ??_C@_0BC@BOHEICOB@glVertexAttrib4fv@
CONST	SEGMENT
??_C@_0BC@BOHEICOB@glVertexAttrib4fv@ DB 'glVertexAttrib4fv', 00H ; `string'
CONST	ENDS
;	COMDAT ??_C@_0BB@MMBGFNJL@glVertexAttrib4f@
CONST	SEGMENT
??_C@_0BB@MMBGFNJL@glVertexAttrib4f@ DB 'glVertexAttrib4f', 00H ; `string'
CONST	ENDS
;	COMDAT ??_C@_0BC@BNPAFGIP@glVertexAttrib4dv@
CONST	SEGMENT
??_C@_0BC@BNPAFGIP@glVertexAttrib4dv@ DB 'glVertexAttrib4dv', 00H ; `string'
CONST	ENDS
;	COMDAT ??_C@_0BB@POCADPBJ@glVertexAttrib4d@
CONST	SEGMENT
??_C@_0BB@POCADPBJ@glVertexAttrib4d@ DB 'glVertexAttrib4d', 00H ; `string'
CONST	ENDS
;	COMDAT ??_C@_0BC@BJHNCKDN@glVertexAttrib4bv@
CONST	SEGMENT
??_C@_0BC@BJHNCKDN@glVertexAttrib4bv@ DB 'glVertexAttrib4bv', 00H ; `string'
CONST	ENDS
;	COMDAT ??_C@_0BE@IIAFPNIH@glVertexAttrib4Nusv@
CONST	SEGMENT
??_C@_0BE@IIAFPNIH@glVertexAttrib4Nusv@ DB 'glVertexAttrib4Nusv', 00H ; `string'
CONST	ENDS
;	COMDAT ??_C@_0BE@JJLENLCB@glVertexAttrib4Nuiv@
CONST	SEGMENT
??_C@_0BE@JJLENLCB@glVertexAttrib4Nuiv@ DB 'glVertexAttrib4Nuiv', 00H ; `string'
CONST	ENDS
;	COMDAT ??_C@_0BE@JFOBDEMA@glVertexAttrib4Nubv@
CONST	SEGMENT
??_C@_0BE@JFOBDEMA@glVertexAttrib4Nubv@ DB 'glVertexAttrib4Nubv', 00H ; `string'
CONST	ENDS
;	COMDAT ??_C@_0BD@OHBIJGMB@glVertexAttrib4Nub@
CONST	SEGMENT
??_C@_0BD@OHBIJGMB@glVertexAttrib4Nub@ DB 'glVertexAttrib4Nub', 00H ; `string'
CONST	ENDS
;	COMDAT ??_C@_0BD@MNDLDNCG@glVertexAttrib4Nsv@
CONST	SEGMENT
??_C@_0BD@MNDLDNCG@glVertexAttrib4Nsv@ DB 'glVertexAttrib4Nsv', 00H ; `string'
CONST	ENDS
;	COMDAT ??_C@_0BD@NMIKBLIA@glVertexAttrib4Niv@
CONST	SEGMENT
??_C@_0BD@NMIKBLIA@glVertexAttrib4Niv@ DB 'glVertexAttrib4Niv', 00H ; `string'
CONST	ENDS
;	COMDAT ??_C@_0BD@NANPPEGB@glVertexAttrib4Nbv@
CONST	SEGMENT
??_C@_0BD@NANPPEGB@glVertexAttrib4Nbv@ DB 'glVertexAttrib4Nbv', 00H ; `string'
CONST	ENDS
;	COMDAT ??_C@_0BC@JJEONLMD@glVertexAttrib3sv@
CONST	SEGMENT
??_C@_0BC@JJEONLMD@glVertexAttrib3sv@ DB 'glVertexAttrib3sv', 00H ; `string'
CONST	ENDS
;	COMDAT ??_C@_0BB@POOMKNAK@glVertexAttrib3s@
CONST	SEGMENT
??_C@_0BB@POOMKNAK@glVertexAttrib3s@ DB 'glVertexAttrib3s', 00H ; `string'
CONST	ENDS
;	COMDAT ??_C@_0BC@IDKDLKFI@glVertexAttrib3fv@
CONST	SEGMENT
??_C@_0BC@IDKDLKFI@glVertexAttrib3fv@ DB 'glVertexAttrib3fv', 00H ; `string'
CONST	ENDS
;	COMDAT ??_C@_0BB@MJFJELBO@glVertexAttrib3f@
CONST	SEGMENT
??_C@_0BB@MJFJELBO@glVertexAttrib3f@ DB 'glVertexAttrib3f', 00H ; `string'
CONST	ENDS
;	COMDAT ??_C@_0BC@IACHGODG@glVertexAttrib3dv@
CONST	SEGMENT
??_C@_0BC@IACHGODG@glVertexAttrib3dv@ DB 'glVertexAttrib3dv', 00H ; `string'
CONST	ENDS
;	COMDAT ??_C@_0BB@PLGPCJJM@glVertexAttrib3d@
CONST	SEGMENT
??_C@_0BB@PLGPCJJM@glVertexAttrib3d@ DB 'glVertexAttrib3d', 00H ; `string'
CONST	ENDS
;	COMDAT ??_C@_0BC@CBPCLMKG@glVertexAttrib2sv@
CONST	SEGMENT
??_C@_0BC@CBPCLMKG@glVertexAttrib2sv@ DB 'glVertexAttrib2sv', 00H ; `string'
CONST	ENDS
;	COMDAT ??_C@_0BB@PPCOMHDN@glVertexAttrib2s@
CONST	SEGMENT
??_C@_0BB@PPCOMHDN@glVertexAttrib2s@ DB 'glVertexAttrib2s', 00H ; `string'
CONST	ENDS
;	COMDAT ??_C@_0BC@DLBPNNDN@glVertexAttrib2fv@
CONST	SEGMENT
??_C@_0BC@DLBPNNDN@glVertexAttrib2fv@ DB 'glVertexAttrib2fv', 00H ; `string'
CONST	ENDS
;	COMDAT ??_C@_0BB@MIJLCBCJ@glVertexAttrib2f@
CONST	SEGMENT
??_C@_0BB@MIJLCBCJ@glVertexAttrib2f@ DB 'glVertexAttrib2f', 00H ; `string'
CONST	ENDS
;	COMDAT ??_C@_0BC@DIJLAJFD@glVertexAttrib2dv@
CONST	SEGMENT
??_C@_0BC@DIJLAJFD@glVertexAttrib2dv@ DB 'glVertexAttrib2dv', 00H ; `string'
CONST	ENDS
;	COMDAT ??_C@_0BB@PKKNEDKL@glVertexAttrib2d@
CONST	SEGMENT
??_C@_0BB@PKKNEDKL@glVertexAttrib2d@ DB 'glVertexAttrib2d', 00H ; `string'
CONST	ENDS
;	COMDAT ??_C@_0BC@DDEHBDEI@glVertexAttrib1sv@
CONST	SEGMENT
??_C@_0BC@DDEHBDEI@glVertexAttrib1sv@ DB 'glVertexAttrib1sv', 00H ; `string'
CONST	ENDS
;	COMDAT ??_C@_0BB@PNGIHJGE@glVertexAttrib1s@
CONST	SEGMENT
??_C@_0BB@PNGIHJGE@glVertexAttrib1s@ DB 'glVertexAttrib1s', 00H ; `string'
CONST	ENDS
;	COMDAT ??_C@_0BC@CJKKHCND@glVertexAttrib1fv@
CONST	SEGMENT
??_C@_0BC@CJKKHCND@glVertexAttrib1fv@ DB 'glVertexAttrib1fv', 00H ; `string'
CONST	ENDS
;	COMDAT ??_C@_0BB@MKNNJPHA@glVertexAttrib1f@
CONST	SEGMENT
??_C@_0BB@MKNNJPHA@glVertexAttrib1f@ DB 'glVertexAttrib1f', 00H ; `string'
CONST	ENDS
;	COMDAT ??_C@_0BC@CKCOKGLN@glVertexAttrib1dv@
CONST	SEGMENT
??_C@_0BC@CKCOKGLN@glVertexAttrib1dv@ DB 'glVertexAttrib1dv', 00H ; `string'
CONST	ENDS
;	COMDAT ??_C@_0BB@PIOLPNPC@glVertexAttrib1d@
CONST	SEGMENT
??_C@_0BB@PIOLPNPC@glVertexAttrib1d@ DB 'glVertexAttrib1d', 00H ; `string'
CONST	ENDS
;	COMDAT ??_C@_0BC@MAPGDLJK@glValidateProgram@
CONST	SEGMENT
??_C@_0BC@MAPGDLJK@glValidateProgram@ DB 'glValidateProgram', 00H ; `string'
CONST	ENDS
;	COMDAT ??_C@_0BD@LNHCBEKP@glUniformMatrix4fv@
CONST	SEGMENT
??_C@_0BD@LNHCBEKP@glUniformMatrix4fv@ DB 'glUniformMatrix4fv', 00H ; `string'
CONST	ENDS
;	COMDAT ??_C@_0BD@CAKFCMBG@glUniformMatrix3fv@
CONST	SEGMENT
??_C@_0BD@CAKFCMBG@glUniformMatrix3fv@ DB 'glUniformMatrix3fv', 00H ; `string'
CONST	ENDS
;	COMDAT ??_C@_0BD@JIBJELHD@glUniformMatrix2fv@
CONST	SEGMENT
??_C@_0BD@JIBJELHD@glUniformMatrix2fv@ DB 'glUniformMatrix2fv', 00H ; `string'
CONST	ENDS
;	COMDAT ??_C@_0N@JFEMPNIH@glUniform4iv@
CONST	SEGMENT
??_C@_0N@JFEMPNIH@glUniform4iv@ DB 'glUniform4iv', 00H	; `string'
CONST	ENDS
;	COMDAT ??_C@_0N@IJLMFDO@glUniform3iv@
CONST	SEGMENT
??_C@_0N@IJLMFDO@glUniform3iv@ DB 'glUniform3iv', 00H	; `string'
CONST	ENDS
;	COMDAT ??_C@_0N@LACHKCFL@glUniform2iv@
CONST	SEGMENT
??_C@_0N@LACHKCFL@glUniform2iv@ DB 'glUniform2iv', 00H	; `string'
CONST	ENDS
;	COMDAT ??_C@_0N@KCJCANLF@glUniform1iv@
CONST	SEGMENT
??_C@_0N@KCJCANLF@glUniform1iv@ DB 'glUniform1iv', 00H	; `string'
CONST	ENDS
;	COMDAT ??_C@_0N@JOBALKLK@glUniform4fv@
CONST	SEGMENT
??_C@_0N@JOBALKLK@glUniform4fv@ DB 'glUniform4fv', 00H	; `string'
CONST	ENDS
;	COMDAT ??_C@_0N@DMHICAD@glUniform3fv@
CONST	SEGMENT
??_C@_0N@DMHICAD@glUniform3fv@ DB 'glUniform3fv', 00H	; `string'
CONST	ENDS
;	COMDAT ??_C@_0N@LLHLOFGG@glUniform2fv@
CONST	SEGMENT
??_C@_0N@LLHLOFGG@glUniform2fv@ DB 'glUniform2fv', 00H	; `string'
CONST	ENDS
;	COMDAT ??_C@_0N@KJMOEKII@glUniform1fv@
CONST	SEGMENT
??_C@_0N@KJMOEKII@glUniform1fv@ DB 'glUniform1fv', 00H	; `string'
CONST	ENDS
;	COMDAT ??_C@_0M@EKNBNBMB@glUniform4i@
CONST	SEGMENT
??_C@_0M@EKNBNBMB@glUniform4i@ DB 'glUniform4i', 00H	; `string'
CONST	ENDS
;	COMDAT ??_C@_0M@EPJOMHEE@glUniform3i@
CONST	SEGMENT
??_C@_0M@EPJOMHEE@glUniform3i@ DB 'glUniform3i', 00H	; `string'
CONST	ENDS
;	COMDAT ??_C@_0M@EOFMKNHD@glUniform2i@
CONST	SEGMENT
??_C@_0M@EOFMKNHD@glUniform2i@ DB 'glUniform2i', 00H	; `string'
CONST	ENDS
;	COMDAT ??_C@_0M@EMBKBDCK@glUniform1i@
CONST	SEGMENT
??_C@_0M@EMBKBDCK@glUniform1i@ DB 'glUniform1i', 00H	; `string'
CONST	ENDS
;	COMDAT ??_C@_0M@MNEJMNAO@glUniform4f@
CONST	SEGMENT
??_C@_0M@MNEJMNAO@glUniform4f@ DB 'glUniform4f', 00H	; `string'
CONST	ENDS
;	COMDAT ??_C@_0M@MIAGNLIL@glUniform3f@
CONST	SEGMENT
??_C@_0M@MIAGNLIL@glUniform3f@ DB 'glUniform3f', 00H	; `string'
CONST	ENDS
;	COMDAT ??_C@_0M@MJMELBLM@glUniform2f@
CONST	SEGMENT
??_C@_0M@MJMELBLM@glUniform2f@ DB 'glUniform2f', 00H	; `string'
CONST	ENDS
;	COMDAT ??_C@_0M@MLICAPOF@glUniform1f@
CONST	SEGMENT
??_C@_0M@MLICAPOF@glUniform1f@ DB 'glUniform1f', 00H	; `string'
CONST	ENDS
;	COMDAT ??_C@_0N@ICBDHBI@glUseProgram@
CONST	SEGMENT
??_C@_0N@ICBDHBI@glUseProgram@ DB 'glUseProgram', 00H	; `string'
CONST	ENDS
;	COMDAT ??_C@_0P@DFHCPFMO@glShaderSource@
CONST	SEGMENT
??_C@_0P@DFHCPFMO@glShaderSource@ DB 'glShaderSource', 00H ; `string'
CONST	ENDS
;	COMDAT ??_C@_0O@PIOEEBPO@glLinkProgram@
CONST	SEGMENT
??_C@_0O@PIOEEBPO@glLinkProgram@ DB 'glLinkProgram', 00H ; `string'
CONST	ENDS
;	COMDAT ??_C@_0L@MDDLFIHC@glIsShader@
CONST	SEGMENT
??_C@_0L@MDDLFIHC@glIsShader@ DB 'glIsShader', 00H	; `string'
CONST	ENDS
;	COMDAT ??_C@_0M@INLOJDGO@glIsProgram@
CONST	SEGMENT
??_C@_0M@INLOJDGO@glIsProgram@ DB 'glIsProgram', 00H	; `string'
CONST	ENDS
;	COMDAT ??_C@_0BK@DOJMENLD@glGetVertexAttribPointerv@
CONST	SEGMENT
??_C@_0BK@DOJMENLD@glGetVertexAttribPointerv@ DB 'glGetVertexAttribPointe'
	DB	'rv', 00H					; `string'
CONST	ENDS
;	COMDAT ??_C@_0BE@HLCEAPNO@glGetVertexAttribiv@
CONST	SEGMENT
??_C@_0BE@HLCEAPNO@glGetVertexAttribiv@ DB 'glGetVertexAttribiv', 00H ; `string'
CONST	ENDS
;	COMDAT ??_C@_0BE@HAHIEIOD@glGetVertexAttribfv@
CONST	SEGMENT
??_C@_0BE@HAHIEIOD@glGetVertexAttribfv@ DB 'glGetVertexAttribfv', 00H ; `string'
CONST	ENDS
;	COMDAT ??_C@_0BE@HDPMJMIN@glGetVertexAttribdv@
CONST	SEGMENT
??_C@_0BE@HDPMJMIN@glGetVertexAttribdv@ DB 'glGetVertexAttribdv', 00H ; `string'
CONST	ENDS
;	COMDAT ??_C@_0P@IAONPCL@glGetUniformiv@
CONST	SEGMENT
??_C@_0P@IAONPCL@glGetUniformiv@ DB 'glGetUniformiv', 00H ; `string'
CONST	ENDS
;	COMDAT ??_C@_0P@DFCJIBG@glGetUniformfv@
CONST	SEGMENT
??_C@_0P@DFCJIBG@glGetUniformfv@ DB 'glGetUniformfv', 00H ; `string'
CONST	ENDS
;	COMDAT ??_C@_0BF@KIOPGICP@glGetUniformLocation@
CONST	SEGMENT
??_C@_0BF@KIOPGICP@glGetUniformLocation@ DB 'glGetUniformLocation', 00H ; `string'
CONST	ENDS
;	COMDAT ??_C@_0BC@ELEIFJEL@glGetShaderSource@
CONST	SEGMENT
??_C@_0BC@ELEIFJEL@glGetShaderSource@ DB 'glGetShaderSource', 00H ; `string'
CONST	ENDS
;	COMDAT ??_C@_0BD@GIABBCMO@glGetShaderInfoLog@
CONST	SEGMENT
??_C@_0BD@GIABBCMO@glGetShaderInfoLog@ DB 'glGetShaderInfoLog', 00H ; `string'
CONST	ENDS
;	COMDAT ??_C@_0O@JBDFPDMG@glGetShaderiv@
CONST	SEGMENT
??_C@_0O@JBDFPDMG@glGetShaderiv@ DB 'glGetShaderiv', 00H ; `string'
CONST	ENDS
;	COMDAT ??_C@_0BE@DHGHAJFL@glGetProgramInfoLog@
CONST	SEGMENT
??_C@_0BE@DHGHAJFL@glGetProgramInfoLog@ DB 'glGetProgramInfoLog', 00H ; `string'
CONST	ENDS
;	COMDAT ??_C@_0P@FMMDFLCO@glGetProgramiv@
CONST	SEGMENT
??_C@_0P@FMMDFLCO@glGetProgramiv@ DB 'glGetProgramiv', 00H ; `string'
CONST	ENDS
;	COMDAT ??_C@_0BE@BEPGJDMM@glGetAttribLocation@
CONST	SEGMENT
??_C@_0BE@BEPGJDMM@glGetAttribLocation@ DB 'glGetAttribLocation', 00H ; `string'
CONST	ENDS
;	COMDAT ??_C@_0BF@GHMDGFEM@glGetAttachedShaders@
CONST	SEGMENT
??_C@_0BF@GHMDGFEM@glGetAttachedShaders@ DB 'glGetAttachedShaders', 00H ; `string'
CONST	ENDS
;	COMDAT ??_C@_0BD@NIMHLLKN@glGetActiveUniform@
CONST	SEGMENT
??_C@_0BD@NIMHLLKN@glGetActiveUniform@ DB 'glGetActiveUniform', 00H ; `string'
CONST	ENDS
;	COMDAT ??_C@_0BC@MBALAOHF@glGetActiveAttrib@
CONST	SEGMENT
??_C@_0BC@MBALAOHF@glGetActiveAttrib@ DB 'glGetActiveAttrib', 00H ; `string'
CONST	ENDS
;	COMDAT ??_C@_0BK@EHBAHNHE@glEnableVertexAttribArray@
CONST	SEGMENT
??_C@_0BK@EHBAHNHE@glEnableVertexAttribArray@ DB 'glEnableVertexAttribArr'
	DB	'ay', 00H					; `string'
CONST	ENDS
;	COMDAT ??_C@_0BL@NKHLOFFF@glDisableVertexAttribArray@
CONST	SEGMENT
??_C@_0BL@NKHLOFFF@glDisableVertexAttribArray@ DB 'glDisableVertexAttribA'
	DB	'rray', 00H					; `string'
CONST	ENDS
;	COMDAT ??_C@_0P@DJFJFCJL@glDetachShader@
CONST	SEGMENT
??_C@_0P@DJFJFCJL@glDetachShader@ DB 'glDetachShader', 00H ; `string'
CONST	ENDS
;	COMDAT ??_C@_0P@HHCDONAG@glDeleteShader@
CONST	SEGMENT
??_C@_0P@HHCDONAG@glDeleteShader@ DB 'glDeleteShader', 00H ; `string'
CONST	ENDS
;	COMDAT ??_C@_0BA@NKGCDOPO@glDeleteProgram@
CONST	SEGMENT
??_C@_0BA@NKGCDOPO@glDeleteProgram@ DB 'glDeleteProgram', 00H ; `string'
CONST	ENDS
;	COMDAT ??_C@_0P@HGHBNC@glCreateShader@
CONST	SEGMENT
??_C@_0P@HGHBNC@glCreateShader@ DB 'glCreateShader', 00H ; `string'
CONST	ENDS
;	COMDAT ??_C@_0BA@FLKLHNKP@glCreateProgram@
CONST	SEGMENT
??_C@_0BA@FLKLHNKP@glCreateProgram@ DB 'glCreateProgram', 00H ; `string'
CONST	ENDS
;	COMDAT ??_C@_0BA@DGIEGONF@glCompileShader@
CONST	SEGMENT
??_C@_0BA@DGIEGONF@glCompileShader@ DB 'glCompileShader', 00H ; `string'
CONST	ENDS
;	COMDAT ??_C@_0BF@MHKEFIHM@glBindAttribLocation@
CONST	SEGMENT
??_C@_0BF@MHKEFIHM@glBindAttribLocation@ DB 'glBindAttribLocation', 00H ; `string'
CONST	ENDS
;	COMDAT ??_C@_0P@LDMLEABL@glAttachShader@
CONST	SEGMENT
??_C@_0P@LDMLEABL@glAttachShader@ DB 'glAttachShader', 00H ; `string'
CONST	ENDS
;	COMDAT ??_C@_0BG@MMKPIEJI@glStencilMaskSeparate@
CONST	SEGMENT
??_C@_0BG@MMKPIEJI@glStencilMaskSeparate@ DB 'glStencilMaskSeparate', 00H ; `string'
CONST	ENDS
;	COMDAT ??_C@_0BG@FCMNCEIA@glStencilFuncSeparate@
CONST	SEGMENT
??_C@_0BG@FCMNCEIA@glStencilFuncSeparate@ DB 'glStencilFuncSeparate', 00H ; `string'
CONST	ENDS
;	COMDAT ??_C@_0BE@GAPLDNGF@glStencilOpSeparate@
CONST	SEGMENT
??_C@_0BE@GAPLDNGF@glStencilOpSeparate@ DB 'glStencilOpSeparate', 00H ; `string'
CONST	ENDS
;	COMDAT ??_C@_0O@COHJKDBH@glDrawBuffers@
CONST	SEGMENT
??_C@_0O@COHJKDBH@glDrawBuffers@ DB 'glDrawBuffers', 00H ; `string'
CONST	ENDS
;	COMDAT ??_C@_0BI@JNHDNJAG@glBlendEquationSeparate@
CONST	SEGMENT
??_C@_0BI@JNHDNJAG@glBlendEquationSeparate@ DB 'glBlendEquationSeparate', 00H ; `string'
CONST	ENDS
;	COMDAT ??_C@_0BE@KNJEIFMC@glGetBufferPointerv@
CONST	SEGMENT
??_C@_0BE@KNJEIFMC@glGetBufferPointerv@ DB 'glGetBufferPointerv', 00H ; `string'
CONST	ENDS
;	COMDAT ??_C@_0BH@BMIEIFJP@glGetBufferParameteriv@
CONST	SEGMENT
??_C@_0BH@BMIEIFJP@glGetBufferParameteriv@ DB 'glGetBufferParameteriv', 00H ; `string'
CONST	ENDS
;	COMDAT ??_C@_0O@OFGHBLEO@glUnmapBuffer@
CONST	SEGMENT
??_C@_0O@OFGHBLEO@glUnmapBuffer@ DB 'glUnmapBuffer', 00H ; `string'
CONST	ENDS
;	COMDAT ??_C@_0M@NNHDPACA@glMapBuffer@
CONST	SEGMENT
??_C@_0M@NNHDPACA@glMapBuffer@ DB 'glMapBuffer', 00H	; `string'
CONST	ENDS
;	COMDAT ??_C@_0BD@PNDAHMBO@glGetBufferSubData@
CONST	SEGMENT
??_C@_0BD@PNDAHMBO@glGetBufferSubData@ DB 'glGetBufferSubData', 00H ; `string'
CONST	ENDS
;	COMDAT ??_C@_0BA@GAJMDBBN@glBufferSubData@
CONST	SEGMENT
??_C@_0BA@GAJMDBBN@glBufferSubData@ DB 'glBufferSubData', 00H ; `string'
CONST	ENDS
;	COMDAT ??_C@_0N@JHHJMABP@glBufferData@
CONST	SEGMENT
??_C@_0N@JHHJMABP@glBufferData@ DB 'glBufferData', 00H	; `string'
CONST	ENDS
;	COMDAT ??_C@_0L@KFPDMKNG@glIsBuffer@
CONST	SEGMENT
??_C@_0L@KFPDMKNG@glIsBuffer@ DB 'glIsBuffer', 00H	; `string'
CONST	ENDS
;	COMDAT ??_C@_0N@LAOHBIBA@glGenBuffers@
CONST	SEGMENT
??_C@_0N@LAOHBIBA@glGenBuffers@ DB 'glGenBuffers', 00H	; `string'
CONST	ENDS
;	COMDAT ??_C@_0BA@DMNLADIO@glDeleteBuffers@
CONST	SEGMENT
??_C@_0BA@DMNLADIO@glDeleteBuffers@ DB 'glDeleteBuffers', 00H ; `string'
CONST	ENDS
;	COMDAT ??_C@_0N@BONEPPLO@glBindBuffer@
CONST	SEGMENT
??_C@_0N@BONEPPLO@glBindBuffer@ DB 'glBindBuffer', 00H	; `string'
CONST	ENDS
;	COMDAT ??_C@_0BE@MNBBKJ@glGetQueryObjectuiv@
CONST	SEGMENT
??_C@_0BE@MNBBKJ@glGetQueryObjectuiv@ DB 'glGetQueryObjectuiv', 00H ; `string'
CONST	ENDS
;	COMDAT ??_C@_0BD@KMBBCJID@glGetQueryObjectiv@
CONST	SEGMENT
??_C@_0BD@KMBBCJID@glGetQueryObjectiv@ DB 'glGetQueryObjectiv', 00H ; `string'
CONST	ENDS
;	COMDAT ??_C@_0N@BPACPFCI@glGetQueryiv@
CONST	SEGMENT
??_C@_0N@BPACPFCI@glGetQueryiv@ DB 'glGetQueryiv', 00H	; `string'
CONST	ENDS
;	COMDAT ??_C@_0L@FLEBHIDM@glEndQuery@
CONST	SEGMENT
??_C@_0L@FLEBHIDM@glEndQuery@ DB 'glEndQuery', 00H	; `string'
CONST	ENDS
;	COMDAT ??_C@_0N@GIAGIGPA@glBeginQuery@
CONST	SEGMENT
??_C@_0N@GIAGIGPA@glBeginQuery@ DB 'glBeginQuery', 00H	; `string'
CONST	ENDS
;	COMDAT ??_C@_09CNNLCEBN@glIsQuery@
CONST	SEGMENT
??_C@_09CNNLCEBN@glIsQuery@ DB 'glIsQuery', 00H		; `string'
CONST	ENDS
;	COMDAT ??_C@_0BA@IOKEHMOH@glDeleteQueries@
CONST	SEGMENT
??_C@_0BA@IOKEHMOH@glDeleteQueries@ DB 'glDeleteQueries', 00H ; `string'
CONST	ENDS
;	COMDAT ??_C@_0N@CJIGHHJ@glGenQueries@
CONST	SEGMENT
??_C@_0N@CJIGHHJ@glGenQueries@ DB 'glGenQueries', 00H	; `string'
CONST	ENDS
;	COMDAT ??_C@_0BA@PFHILPAN@glBlendEquation@
CONST	SEGMENT
??_C@_0BA@PFHILPAN@glBlendEquation@ DB 'glBlendEquation', 00H ; `string'
CONST	ENDS
;	COMDAT ??_C@_0N@PKBMFJDK@glBlendColor@
CONST	SEGMENT
??_C@_0N@PKBMFJDK@glBlendColor@ DB 'glBlendColor', 00H	; `string'
CONST	ENDS
;	COMDAT ??_C@_0P@MAJBJBIM@glWindowPos3sv@
CONST	SEGMENT
??_C@_0P@MAJBJBIM@glWindowPos3sv@ DB 'glWindowPos3sv', 00H ; `string'
CONST	ENDS
;	COMDAT ??_C@_0O@JCJLPFHG@glWindowPos3s@
CONST	SEGMENT
??_C@_0O@JCJLPFHG@glWindowPos3s@ DB 'glWindowPos3s', 00H ; `string'
CONST	ENDS
;	COMDAT ??_C@_0P@NBCALHCK@glWindowPos3iv@
CONST	SEGMENT
??_C@_0P@NBCALHCK@glWindowPos3iv@ DB 'glWindowPos3iv', 00H ; `string'
CONST	ENDS
;	COMDAT ??_C@_0O@CCLGAPKN@glWindowPos3i@
CONST	SEGMENT
??_C@_0O@CCLGAPKN@glWindowPos3i@ DB 'glWindowPos3i', 00H ; `string'
CONST	ENDS
;	COMDAT ??_C@_0P@NKHMPABH@glWindowPos3fv@
CONST	SEGMENT
??_C@_0P@NKHMPABH@glWindowPos3fv@ DB 'glWindowPos3fv', 00H ; `string'
CONST	ENDS
;	COMDAT ??_C@_0O@KFCOBDGC@glWindowPos3f@
CONST	SEGMENT
??_C@_0O@KFCOBDGC@glWindowPos3f@ DB 'glWindowPos3f', 00H ; `string'
CONST	ENDS
;	COMDAT ??_C@_0P@NJPICEHJ@glWindowPos3dv@
CONST	SEGMENT
??_C@_0P@NJPICEHJ@glWindowPos3dv@ DB 'glWindowPos3dv', 00H ; `string'
CONST	ENDS
;	COMDAT ??_C@_0O@JHBIHBOA@glWindowPos3d@
CONST	SEGMENT
??_C@_0O@JHBIHBOA@glWindowPos3d@ DB 'glWindowPos3d', 00H ; `string'
CONST	ENDS
;	COMDAT ??_C@_0P@HICNPGOJ@glWindowPos2sv@
CONST	SEGMENT
??_C@_0P@HICNPGOJ@glWindowPos2sv@ DB 'glWindowPos2sv', 00H ; `string'
CONST	ENDS
;	COMDAT ??_C@_0O@JDFJJPEB@glWindowPos2s@
CONST	SEGMENT
??_C@_0O@JDFJJPEB@glWindowPos2s@ DB 'glWindowPos2s', 00H ; `string'
CONST	ENDS
;	COMDAT ??_C@_0P@GJJMNAEP@glWindowPos2iv@
CONST	SEGMENT
??_C@_0P@GJJMNAEP@glWindowPos2iv@ DB 'glWindowPos2iv', 00H ; `string'
CONST	ENDS
;	COMDAT ??_C@_0O@CDHEGFJK@glWindowPos2i@
CONST	SEGMENT
??_C@_0O@CDHEGFJK@glWindowPos2i@ DB 'glWindowPos2i', 00H ; `string'
CONST	ENDS
;	COMDAT ??_C@_0P@GCMAJHHC@glWindowPos2fv@
CONST	SEGMENT
??_C@_0P@GCMAJHHC@glWindowPos2fv@ DB 'glWindowPos2fv', 00H ; `string'
CONST	ENDS
;	COMDAT ??_C@_0O@KEOMHJFF@glWindowPos2f@
CONST	SEGMENT
??_C@_0O@KEOMHJFF@glWindowPos2f@ DB 'glWindowPos2f', 00H ; `string'
CONST	ENDS
;	COMDAT ??_C@_0P@GBEEEDBM@glWindowPos2dv@
CONST	SEGMENT
??_C@_0P@GBEEEDBM@glWindowPos2dv@ DB 'glWindowPos2dv', 00H ; `string'
CONST	ENDS
;	COMDAT ??_C@_0O@JGNKBLNH@glWindowPos2d@
CONST	SEGMENT
??_C@_0O@JGNKBLNH@glWindowPos2d@ DB 'glWindowPos2d', 00H ; `string'
CONST	ENDS
;	COMDAT ??_C@_0BI@EFMNDJOO@glSecondaryColorPointer@
CONST	SEGMENT
??_C@_0BI@EFMNDJOO@glSecondaryColorPointer@ DB 'glSecondaryColorPointer', 00H ; `string'
CONST	ENDS
;	COMDAT ??_C@_0BF@FKAMGHPP@glSecondaryColor3usv@
CONST	SEGMENT
??_C@_0BF@FKAMGHPP@glSecondaryColor3usv@ DB 'glSecondaryColor3usv', 00H ; `string'
CONST	ENDS
;	COMDAT ??_C@_0BE@LANODAPH@glSecondaryColor3us@
CONST	SEGMENT
??_C@_0BE@LANODAPH@glSecondaryColor3us@ DB 'glSecondaryColor3us', 00H ; `string'
CONST	ENDS
;	COMDAT ??_C@_0BF@ELLNEBFJ@glSecondaryColor3uiv@
CONST	SEGMENT
??_C@_0BF@ELLNEBFJ@glSecondaryColor3uiv@ DB 'glSecondaryColor3uiv', 00H ; `string'
CONST	ENDS
;	COMDAT ??_C@_0BE@PDMKCM@glSecondaryColor3ui@
CONST	SEGMENT
??_C@_0BE@PDMKCM@glSecondaryColor3ui@ DB 'glSecondaryColor3ui', 00H ; `string'
CONST	ENDS
;	COMDAT ??_C@_0BF@EHOIKOLI@glSecondaryColor3ubv@
CONST	SEGMENT
??_C@_0BF@EHOIKOLI@glSecondaryColor3ubv@ DB 'glSecondaryColor3ubv', 00H ; `string'
CONST	ENDS
;	COMDAT ??_C@_0BE@ODAHBDOH@glSecondaryColor3ub@
CONST	SEGMENT
??_C@_0BE@ODAHBDOH@glSecondaryColor3ub@ DB 'glSecondaryColor3ub', 00H ; `string'
CONST	ENDS
;	COMDAT ??_C@_0BE@MJCELIAA@glSecondaryColor3sv@
CONST	SEGMENT
??_C@_0BE@MJCELIAA@glSecondaryColor3sv@ DB 'glSecondaryColor3sv', 00H ; `string'
CONST	ENDS
;	COMDAT ??_C@_0BD@JBPOFCHK@glSecondaryColor3s@
CONST	SEGMENT
??_C@_0BD@JBPOFCHK@glSecondaryColor3s@ DB 'glSecondaryColor3s', 00H ; `string'
CONST	ENDS
;	COMDAT ??_C@_0BE@NIJFJOKG@glSecondaryColor3iv@
CONST	SEGMENT
??_C@_0BE@NIJFJOKG@glSecondaryColor3iv@ DB 'glSecondaryColor3iv', 00H ; `string'
CONST	ENDS
;	COMDAT ??_C@_0BD@CBNDKIKB@glSecondaryColor3i@
CONST	SEGMENT
??_C@_0BD@CBNDKIKB@glSecondaryColor3i@ DB 'glSecondaryColor3i', 00H ; `string'
CONST	ENDS
;	COMDAT ??_C@_0BE@NDMJNJJL@glSecondaryColor3fv@
CONST	SEGMENT
??_C@_0BE@NDMJNJJL@glSecondaryColor3fv@ DB 'glSecondaryColor3fv', 00H ; `string'
CONST	ENDS
;	COMDAT ??_C@_0BD@KGELLEGO@glSecondaryColor3f@
CONST	SEGMENT
??_C@_0BD@KGELLEGO@glSecondaryColor3f@ DB 'glSecondaryColor3f', 00H ; `string'
CONST	ENDS
;	COMDAT ??_C@_0BE@NAENANPF@glSecondaryColor3dv@
CONST	SEGMENT
??_C@_0BE@NAENANPF@glSecondaryColor3dv@ DB 'glSecondaryColor3dv', 00H ; `string'
CONST	ENDS
;	COMDAT ??_C@_0BD@JEHNNGOM@glSecondaryColor3d@
CONST	SEGMENT
??_C@_0BD@JEHNNGOM@glSecondaryColor3d@ DB 'glSecondaryColor3d', 00H ; `string'
CONST	ENDS
;	COMDAT ??_C@_0BE@NEMAHBEH@glSecondaryColor3bv@
CONST	SEGMENT
??_C@_0BE@NEMAHBEH@glSecondaryColor3bv@ DB 'glSecondaryColor3bv', 00H ; `string'
CONST	ENDS
;	COMDAT ??_C@_0BD@MCCHHBGK@glSecondaryColor3b@
CONST	SEGMENT
??_C@_0BD@MCCHHBGK@glSecondaryColor3b@ DB 'glSecondaryColor3b', 00H ; `string'
CONST	ENDS
;	COMDAT ??_C@_0BC@GECGFLP@glFogCoordPointer@
CONST	SEGMENT
??_C@_0BC@GECGFLP@glFogCoordPointer@ DB 'glFogCoordPointer', 00H ; `string'
CONST	ENDS
;	COMDAT ??_C@_0N@KKODAODE@glFogCoorddv@
CONST	SEGMENT
??_C@_0N@KKODAODE@glFogCoorddv@ DB 'glFogCoorddv', 00H	; `string'
CONST	ENDS
;	COMDAT ??_C@_0M@FACELPGH@glFogCoordd@
CONST	SEGMENT
??_C@_0M@FACELPGH@glFogCoordd@ DB 'glFogCoordd', 00H	; `string'
CONST	ENDS
;	COMDAT ??_C@_0N@KJGHNKFK@glFogCoordfv@
CONST	SEGMENT
??_C@_0N@KJGHNKFK@glFogCoordfv@ DB 'glFogCoordfv', 00H	; `string'
CONST	ENDS
;	COMDAT ??_C@_0M@GCBCNNOF@glFogCoordf@
CONST	SEGMENT
??_C@_0M@GCBCNNOF@glFogCoordf@ DB 'glFogCoordf', 00H	; `string'
CONST	ENDS
;	COMDAT ??_C@_0BD@LDFNOKAC@glPointParameteriv@
CONST	SEGMENT
??_C@_0BD@LDFNOKAC@glPointParameteriv@ DB 'glPointParameteriv', 00H ; `string'
CONST	ENDS
;	COMDAT ??_C@_0BC@ICPGPIPB@glPointParameteri@
CONST	SEGMENT
??_C@_0BC@ICPGPIPB@glPointParameteri@ DB 'glPointParameteri', 00H ; `string'
CONST	ENDS
;	COMDAT ??_C@_0BD@LIABKNDP@glPointParameterfv@
CONST	SEGMENT
??_C@_0BD@LIABKNDP@glPointParameterfv@ DB 'glPointParameterfv', 00H ; `string'
CONST	ENDS
;	COMDAT ??_C@_0BC@FGOOEDO@glPointParameterf@
CONST	SEGMENT
??_C@_0BC@FGOOEDO@glPointParameterf@ DB 'glPointParameterf', 00H ; `string'
CONST	ENDS
;	COMDAT ??_C@_0BE@MPDFJJLL@glMultiDrawElements@
CONST	SEGMENT
??_C@_0BE@MPDFJJLL@glMultiDrawElements@ DB 'glMultiDrawElements', 00H ; `string'
CONST	ENDS
;	COMDAT ??_C@_0BC@IBABPJFA@glMultiDrawArrays@
CONST	SEGMENT
??_C@_0BC@IBABPJFA@glMultiDrawArrays@ DB 'glMultiDrawArrays', 00H ; `string'
CONST	ENDS
;	COMDAT ??_C@_0BE@LLLCIIOO@glBlendFuncSeparate@
CONST	SEGMENT
??_C@_0BE@LLLCIIOO@glBlendFuncSeparate@ DB 'glBlendFuncSeparate', 00H ; `string'
CONST	ENDS
;	COMDAT ??_C@_0BH@NCKJAFA@glMultTransposeMatrixd@
CONST	SEGMENT
??_C@_0BH@NCKJAFA@glMultTransposeMatrixd@ DB 'glMultTransposeMatrixd', 00H ; `string'
CONST	ENDS
;	COMDAT ??_C@_0BH@DPBMPCNC@glMultTransposeMatrixf@
CONST	SEGMENT
??_C@_0BH@DPBMPCNC@glMultTransposeMatrixf@ DB 'glMultTransposeMatrixf', 00H ; `string'
CONST	ENDS
;	COMDAT ??_C@_0BH@DMKLNEPC@glLoadTransposeMatrixd@
CONST	SEGMENT
??_C@_0BH@DMKLNEPC@glLoadTransposeMatrixd@ DB 'glLoadTransposeMatrixd', 00H ; `string'
CONST	ENDS
;	COMDAT ??_C@_0BH@OJNLGHA@glLoadTransposeMatrixf@
CONST	SEGMENT
??_C@_0BH@OJNLGHA@glLoadTransposeMatrixf@ DB 'glLoadTransposeMatrixf', 00H ; `string'
CONST	ENDS
;	COMDAT ??_C@_0BD@HKFHALMP@glMultiTexCoord4sv@
CONST	SEGMENT
??_C@_0BD@HKFHALMP@glMultiTexCoord4sv@ DB 'glMultiTexCoord4sv', 00H ; `string'
CONST	ENDS
;	COMDAT ??_C@_0BC@IEDHLDIC@glMultiTexCoord4s@
CONST	SEGMENT
??_C@_0BC@IEDHLDIC@glMultiTexCoord4s@ DB 'glMultiTexCoord4s', 00H ; `string'
CONST	ENDS
;	COMDAT ??_C@_0BD@GLOGCNGJ@glMultiTexCoord4iv@
CONST	SEGMENT
??_C@_0BD@GLOGCNGJ@glMultiTexCoord4iv@ DB 'glMultiTexCoord4iv', 00H ; `string'
CONST	ENDS
;	COMDAT ??_C@_0BC@DEBKEJFJ@glMultiTexCoord4i@
CONST	SEGMENT
??_C@_0BC@DEBKEJFJ@glMultiTexCoord4i@ DB 'glMultiTexCoord4i', 00H ; `string'
CONST	ENDS
;	COMDAT ??_C@_0BD@GALKGKFE@glMultiTexCoord4fv@
CONST	SEGMENT
??_C@_0BD@GALKGKFE@glMultiTexCoord4fv@ DB 'glMultiTexCoord4fv', 00H ; `string'
CONST	ENDS
;	COMDAT ??_C@_0BC@LDICFFJG@glMultiTexCoord4f@
CONST	SEGMENT
??_C@_0BC@LDICFFJG@glMultiTexCoord4f@ DB 'glMultiTexCoord4f', 00H ; `string'
CONST	ENDS
;	COMDAT ??_C@_0BD@GDDOLODK@glMultiTexCoord4dv@
CONST	SEGMENT
??_C@_0BD@GDDOLODK@glMultiTexCoord4dv@ DB 'glMultiTexCoord4dv', 00H ; `string'
CONST	ENDS
;	COMDAT ??_C@_0BC@IBLEDHBE@glMultiTexCoord4d@
CONST	SEGMENT
??_C@_0BC@IBLEDHBE@glMultiTexCoord4d@ DB 'glMultiTexCoord4d', 00H ; `string'
CONST	ENDS
;	COMDAT ??_C@_0BD@OHIADDHG@glMultiTexCoord3sv@
CONST	SEGMENT
??_C@_0BD@OHIADDHG@glMultiTexCoord3sv@ DB 'glMultiTexCoord3sv', 00H ; `string'
CONST	ENDS
;	COMDAT ??_C@_0BC@IBHIKFAH@glMultiTexCoord3s@
CONST	SEGMENT
??_C@_0BC@IBHIKFAH@glMultiTexCoord3s@ DB 'glMultiTexCoord3s', 00H ; `string'
CONST	ENDS
;	COMDAT ??_C@_0BD@PGDBBFNA@glMultiTexCoord3iv@
CONST	SEGMENT
??_C@_0BD@PGDBBFNA@glMultiTexCoord3iv@ DB 'glMultiTexCoord3iv', 00H ; `string'
CONST	ENDS
;	COMDAT ??_C@_0BC@DBFFFPNM@glMultiTexCoord3i@
CONST	SEGMENT
??_C@_0BC@DBFFFPNM@glMultiTexCoord3i@ DB 'glMultiTexCoord3i', 00H ; `string'
CONST	ENDS
;	COMDAT ??_C@_0BD@PNGNFCON@glMultiTexCoord3fv@
CONST	SEGMENT
??_C@_0BD@PNGNFCON@glMultiTexCoord3fv@ DB 'glMultiTexCoord3fv', 00H ; `string'
CONST	ENDS
;	COMDAT ??_C@_0BC@LGMNEDBD@glMultiTexCoord3f@
CONST	SEGMENT
??_C@_0BC@LGMNEDBD@glMultiTexCoord3f@ DB 'glMultiTexCoord3f', 00H ; `string'
CONST	ENDS
;	COMDAT ??_C@_0BD@POOJIGID@glMultiTexCoord3dv@
CONST	SEGMENT
??_C@_0BD@POOJIGID@glMultiTexCoord3dv@ DB 'glMultiTexCoord3dv', 00H ; `string'
CONST	ENDS
;	COMDAT ??_C@_0BC@IEPLCBJB@glMultiTexCoord3d@
CONST	SEGMENT
??_C@_0BC@IEPLCBJB@glMultiTexCoord3d@ DB 'glMultiTexCoord3d', 00H ; `string'
CONST	ENDS
;	COMDAT ??_C@_0BD@FPDMFEBD@glMultiTexCoord2sv@
CONST	SEGMENT
??_C@_0BD@FPDMFEBD@glMultiTexCoord2sv@ DB 'glMultiTexCoord2sv', 00H ; `string'
CONST	ENDS
;	COMDAT ??_C@_0BC@IALKMPDA@glMultiTexCoord2s@
CONST	SEGMENT
??_C@_0BC@IALKMPDA@glMultiTexCoord2s@ DB 'glMultiTexCoord2s', 00H ; `string'
CONST	ENDS
;	COMDAT ??_C@_0BD@EOINHCLF@glMultiTexCoord2iv@
CONST	SEGMENT
??_C@_0BD@EOINHCLF@glMultiTexCoord2iv@ DB 'glMultiTexCoord2iv', 00H ; `string'
CONST	ENDS
;	COMDAT ??_C@_0BC@DAJHDFOL@glMultiTexCoord2i@
CONST	SEGMENT
??_C@_0BC@DAJHDFOL@glMultiTexCoord2i@ DB 'glMultiTexCoord2i', 00H ; `string'
CONST	ENDS
;	COMDAT ??_C@_0BD@EFNBDFII@glMultiTexCoord2fv@
CONST	SEGMENT
??_C@_0BD@EFNBDFII@glMultiTexCoord2fv@ DB 'glMultiTexCoord2fv', 00H ; `string'
CONST	ENDS
;	COMDAT ??_C@_0BC@LHAPCJCE@glMultiTexCoord2f@
CONST	SEGMENT
??_C@_0BC@LHAPCJCE@glMultiTexCoord2f@ DB 'glMultiTexCoord2f', 00H ; `string'
CONST	ENDS
;	COMDAT ??_C@_0BD@EGFFOBOG@glMultiTexCoord2dv@
CONST	SEGMENT
??_C@_0BD@EGFFOBOG@glMultiTexCoord2dv@ DB 'glMultiTexCoord2dv', 00H ; `string'
CONST	ENDS
;	COMDAT ??_C@_0BC@IFDJELKG@glMultiTexCoord2d@
CONST	SEGMENT
??_C@_0BC@IFDJELKG@glMultiTexCoord2d@ DB 'glMultiTexCoord2d', 00H ; `string'
CONST	ENDS
;	COMDAT ??_C@_0BD@ENIJPLPN@glMultiTexCoord1sv@
CONST	SEGMENT
??_C@_0BD@ENIJPLPN@glMultiTexCoord1sv@ DB 'glMultiTexCoord1sv', 00H ; `string'
CONST	ENDS
;	COMDAT ??_C@_0BC@ICPMHBGJ@glMultiTexCoord1s@
CONST	SEGMENT
??_C@_0BC@ICPMHBGJ@glMultiTexCoord1s@ DB 'glMultiTexCoord1s', 00H ; `string'
CONST	ENDS
;	COMDAT ??_C@_0BD@FMDINNFL@glMultiTexCoord1iv@
CONST	SEGMENT
??_C@_0BD@FMDINNFL@glMultiTexCoord1iv@ DB 'glMultiTexCoord1iv', 00H ; `string'
CONST	ENDS
;	COMDAT ??_C@_0BC@DCNBILLC@glMultiTexCoord1i@
CONST	SEGMENT
??_C@_0BC@DCNBILLC@glMultiTexCoord1i@ DB 'glMultiTexCoord1i', 00H ; `string'
CONST	ENDS
;	COMDAT ??_C@_0BD@FHGEJKGG@glMultiTexCoord1fv@
CONST	SEGMENT
??_C@_0BD@FHGEJKGG@glMultiTexCoord1fv@ DB 'glMultiTexCoord1fv', 00H ; `string'
CONST	ENDS
;	COMDAT ??_C@_0BC@LFEJJHHN@glMultiTexCoord1f@
CONST	SEGMENT
??_C@_0BC@LFEJJHHN@glMultiTexCoord1f@ DB 'glMultiTexCoord1f', 00H ; `string'
CONST	ENDS
;	COMDAT ??_C@_0BD@FEOAEOAI@glMultiTexCoord1dv@
CONST	SEGMENT
??_C@_0BD@FEOAEOAI@glMultiTexCoord1dv@ DB 'glMultiTexCoord1dv', 00H ; `string'
CONST	ENDS
;	COMDAT ??_C@_0BC@IHHPPFPP@glMultiTexCoord1d@
CONST	SEGMENT
??_C@_0BC@IHHPPFPP@glMultiTexCoord1d@ DB 'glMultiTexCoord1d', 00H ; `string'
CONST	ENDS
;	COMDAT ??_C@_0BG@EGKOMLFO@glClientActiveTexture@
CONST	SEGMENT
??_C@_0BG@EGKOMLFO@glClientActiveTexture@ DB 'glClientActiveTexture', 00H ; `string'
CONST	ENDS
;	COMDAT ??_C@_0BI@MPANLPPL@glGetCompressedTexImage@
CONST	SEGMENT
??_C@_0BI@MPANLPPL@glGetCompressedTexImage@ DB 'glGetCompressedTexImage', 00H ; `string'
CONST	ENDS
;	COMDAT ??_C@_0BK@ECBIPHJO@glCompressedTexSubImage1D@
CONST	SEGMENT
??_C@_0BK@ECBIPHJO@glCompressedTexSubImage1D@ DB 'glCompressedTexSubImage'
	DB	'1D', 00H					; `string'
CONST	ENDS
;	COMDAT ??_C@_0BK@EAFOEJMH@glCompressedTexSubImage2D@
CONST	SEGMENT
??_C@_0BK@EAFOEJMH@glCompressedTexSubImage2D@ DB 'glCompressedTexSubImage'
	DB	'2D', 00H					; `string'
CONST	ENDS
;	COMDAT ??_C@_0BK@EBJMCDPA@glCompressedTexSubImage3D@
CONST	SEGMENT
??_C@_0BK@EBJMCDPA@glCompressedTexSubImage3D@ DB 'glCompressedTexSubImage'
	DB	'3D', 00H					; `string'
CONST	ENDS
;	COMDAT ??_C@_0BH@GFPJBEAB@glCompressedTexImage1D@
CONST	SEGMENT
??_C@_0BH@GFPJBEAB@glCompressedTexImage1D@ DB 'glCompressedTexImage1D', 00H ; `string'
CONST	ENDS
;	COMDAT ??_C@_0BH@GHLPKKFI@glCompressedTexImage2D@
CONST	SEGMENT
??_C@_0BH@GHLPKKFI@glCompressedTexImage2D@ DB 'glCompressedTexImage2D', 00H ; `string'
CONST	ENDS
;	COMDAT ??_C@_0BH@GGHNMAGP@glCompressedTexImage3D@
CONST	SEGMENT
??_C@_0BH@GGHNMAGP@glCompressedTexImage3D@ DB 'glCompressedTexImage3D', 00H ; `string'
CONST	ENDS
;	COMDAT ??_C@_0BB@BJGIPMOA@glSampleCoverage@
CONST	SEGMENT
??_C@_0BB@BJGIPMOA@glSampleCoverage@ DB 'glSampleCoverage', 00H ; `string'
CONST	ENDS
;	COMDAT ??_C@_0BA@KOBBIKOF@glActiveTexture@
CONST	SEGMENT
??_C@_0BA@KOBBIKOF@glActiveTexture@ DB 'glActiveTexture', 00H ; `string'
CONST	ENDS
;	COMDAT ??_C@_0BE@PJFGNMAG@glCopyTexSubImage3D@
CONST	SEGMENT
??_C@_0BE@PJFGNMAG@glCopyTexSubImage3D@ DB 'glCopyTexSubImage3D', 00H ; `string'
CONST	ENDS
;	COMDAT ??_C@_0BA@NGGKPOPN@glTexSubImage3D@
CONST	SEGMENT
??_C@_0BA@NGGKPOPN@glTexSubImage3D@ DB 'glTexSubImage3D', 00H ; `string'
CONST	ENDS
;	COMDAT ??_C@_0N@JAEIBBBF@glTexImage3D@
CONST	SEGMENT
??_C@_0N@JAEIBBBF@glTexImage3D@ DB 'glTexImage3D', 00H	; `string'
CONST	ENDS
;	COMDAT ??_C@_0BE@IHNAGJGJ@glDrawRangeElements@
CONST	SEGMENT
??_C@_0BE@IHNAGJGJ@glDrawRangeElements@ DB 'glDrawRangeElements', 00H ; `string'
CONST	ENDS
;	COMDAT ??_C@_0BD@JKGPLNEA@glPushClientAttrib@
CONST	SEGMENT
??_C@_0BD@JKGPLNEA@glPushClientAttrib@ DB 'glPushClientAttrib', 00H ; `string'
CONST	ENDS
;	COMDAT ??_C@_0BC@GOOJKIDH@glPopClientAttrib@
CONST	SEGMENT
??_C@_0BC@GOOJKIDH@glPopClientAttrib@ DB 'glPopClientAttrib', 00H ; `string'
CONST	ENDS
;	COMDAT ??_C@_0L@BBKJOCAC@glIndexubv@
CONST	SEGMENT
??_C@_0L@BBKJOCAC@glIndexubv@ DB 'glIndexubv', 00H	; `string'
CONST	ENDS
;	COMDAT ??_C@_09BBIPIKNC@glIndexub@
CONST	SEGMENT
??_C@_09BBIPIKNC@glIndexub@ DB 'glIndexub', 00H		; `string'
CONST	ENDS
;	COMDAT ??_C@_0BF@FFCGNNIA@glPrioritizeTextures@
CONST	SEGMENT
??_C@_0BF@FFCGNNIA@glPrioritizeTextures@ DB 'glPrioritizeTextures', 00H ; `string'
CONST	ENDS
;	COMDAT ??_C@_0BG@DHOKJLEP@glAreTexturesResident@
CONST	SEGMENT
??_C@_0BG@DHOKJLEP@glAreTexturesResident@ DB 'glAreTexturesResident', 00H ; `string'
CONST	ENDS
;	COMDAT ??_C@_0BA@HAHECJNK@glVertexPointer@
CONST	SEGMENT
??_C@_0BA@HAHECJNK@glVertexPointer@ DB 'glVertexPointer', 00H ; `string'
CONST	ENDS
;	COMDAT ??_C@_0BC@DAOMILMO@glTexCoordPointer@
CONST	SEGMENT
??_C@_0BC@DAOMILMO@glTexCoordPointer@ DB 'glTexCoordPointer', 00H ; `string'
CONST	ENDS
;	COMDAT ??_C@_0BA@DCLMCEOP@glNormalPointer@
CONST	SEGMENT
??_C@_0BA@DCLMCEOP@glNormalPointer@ DB 'glNormalPointer', 00H ; `string'
CONST	ENDS
;	COMDAT ??_C@_0BE@EDEDCKLI@glInterleavedArrays@
CONST	SEGMENT
??_C@_0BE@EDEDCKLI@glInterleavedArrays@ DB 'glInterleavedArrays', 00H ; `string'
CONST	ENDS
;	COMDAT ??_C@_0P@KGJBLKPD@glIndexPointer@
CONST	SEGMENT
??_C@_0P@KGJBLKPD@glIndexPointer@ DB 'glIndexPointer', 00H ; `string'
CONST	ENDS
;	COMDAT ??_C@_0BE@KECPKGNE@glEnableClientState@
CONST	SEGMENT
??_C@_0BE@KECPKGNE@glEnableClientState@ DB 'glEnableClientState', 00H ; `string'
CONST	ENDS
;	COMDAT ??_C@_0BC@LILGCNN@glEdgeFlagPointer@
CONST	SEGMENT
??_C@_0BC@LILGCNN@glEdgeFlagPointer@ DB 'glEdgeFlagPointer', 00H ; `string'
CONST	ENDS
;	COMDAT ??_C@_0BF@LJDHBNBP@glDisableClientState@
CONST	SEGMENT
??_C@_0BF@LJDHBNBP@glDisableClientState@ DB 'glDisableClientState', 00H ; `string'
CONST	ENDS
;	COMDAT ??_C@_0P@DPKEGLKI@glColorPointer@
CONST	SEGMENT
??_C@_0P@DPKEGLKI@glColorPointer@ DB 'glColorPointer', 00H ; `string'
CONST	ENDS
;	COMDAT ??_C@_0P@CKCIJELG@glArrayElement@
CONST	SEGMENT
??_C@_0P@CKCIJELG@glArrayElement@ DB 'glArrayElement', 00H ; `string'
CONST	ENDS
;	COMDAT ??_C@_0M@NJHAEPDN@glIsTexture@
CONST	SEGMENT
??_C@_0M@NJHAEPDN@glIsTexture@ DB 'glIsTexture', 00H	; `string'
CONST	ENDS
;	COMDAT ??_C@_0O@LLMANLNK@glGenTextures@
CONST	SEGMENT
??_C@_0O@LLMANLNK@glGenTextures@ DB 'glGenTextures', 00H ; `string'
CONST	ENDS
;	COMDAT ??_C@_0BB@KMPLFJIC@glDeleteTextures@
CONST	SEGMENT
??_C@_0BB@KMPLFJIC@glDeleteTextures@ DB 'glDeleteTextures', 00H ; `string'
CONST	ENDS
;	COMDAT ??_C@_0O@JKKCIBGC@glBindTexture@
CONST	SEGMENT
??_C@_0O@JKKCIBGC@glBindTexture@ DB 'glBindTexture', 00H ; `string'
CONST	ENDS
;	COMDAT ??_C@_0BA@NHKIJEMK@glTexSubImage2D@
CONST	SEGMENT
??_C@_0BA@NHKIJEMK@glTexSubImage2D@ DB 'glTexSubImage2D', 00H ; `string'
CONST	ENDS
;	COMDAT ??_C@_0BA@NFOOCKJD@glTexSubImage1D@
CONST	SEGMENT
??_C@_0BA@NFOOCKJD@glTexSubImage1D@ DB 'glTexSubImage1D', 00H ; `string'
CONST	ENDS
;	COMDAT ??_C@_0BE@PIJELGDB@glCopyTexSubImage2D@
CONST	SEGMENT
??_C@_0BE@PIJELGDB@glCopyTexSubImage2D@ DB 'glCopyTexSubImage2D', 00H ; `string'
CONST	ENDS
;	COMDAT ??_C@_0BE@PKNCAIGI@glCopyTexSubImage1D@
CONST	SEGMENT
??_C@_0BE@PKNCAIGI@glCopyTexSubImage1D@ DB 'glCopyTexSubImage1D', 00H ; `string'
CONST	ENDS
;	COMDAT ??_C@_0BB@MGAFKJKC@glCopyTexImage2D@
CONST	SEGMENT
??_C@_0BB@MGAFKJKC@glCopyTexImage2D@ DB 'glCopyTexImage2D', 00H ; `string'
CONST	ENDS
;	COMDAT ??_C@_0BB@MEEDBHPL@glCopyTexImage1D@
CONST	SEGMENT
??_C@_0BB@MEEDBHPL@glCopyTexImage1D@ DB 'glCopyTexImage1D', 00H ; `string'
CONST	ENDS
;	COMDAT ??_C@_0BA@FFBJGNC@glPolygonOffset@
CONST	SEGMENT
??_C@_0BA@FFBJGNC@glPolygonOffset@ DB 'glPolygonOffset', 00H ; `string'
CONST	ENDS
;	COMDAT ??_C@_0O@LADEDGJO@glGetPointerv@
CONST	SEGMENT
??_C@_0O@LADEDGJO@glGetPointerv@ DB 'glGetPointerv', 00H ; `string'
CONST	ENDS
;	COMDAT ??_C@_0P@MENFIFGE@glDrawElements@
CONST	SEGMENT
??_C@_0P@MENFIFGE@glDrawElements@ DB 'glDrawElements', 00H ; `string'
CONST	ENDS
;	COMDAT ??_C@_0N@CMNPPOHA@glDrawArrays@
CONST	SEGMENT
??_C@_0N@CMNPPOHA@glDrawArrays@ DB 'glDrawArrays', 00H	; `string'
CONST	ENDS
;	COMDAT ??_C@_0N@IFPDDBNE@glTranslatef@
CONST	SEGMENT
??_C@_0N@IFPDDBNE@glTranslatef@ DB 'glTranslatef', 00H	; `string'
CONST	ENDS
;	COMDAT ??_C@_0N@LHMFFDFG@glTranslated@
CONST	SEGMENT
??_C@_0N@LHMFFDFG@glTranslated@ DB 'glTranslated', 00H	; `string'
CONST	ENDS
;	COMDAT ??_C@_08JCPEOPLK@glScalef@
CONST	SEGMENT
??_C@_08JCPEOPLK@glScalef@ DB 'glScalef', 00H		; `string'
CONST	ENDS
;	COMDAT ??_C@_08KAMCINDI@glScaled@
CONST	SEGMENT
??_C@_08KAMCINDI@glScaled@ DB 'glScaled', 00H		; `string'
CONST	ENDS
;	COMDAT ??_C@_09FCODNBIM@glRotatef@
CONST	SEGMENT
??_C@_09FCODNBIM@glRotatef@ DB 'glRotatef', 00H		; `string'
CONST	ENDS
;	COMDAT ??_C@_09GANFLDAO@glRotated@
CONST	SEGMENT
??_C@_09GANFLDAO@glRotated@ DB 'glRotated', 00H		; `string'
CONST	ENDS
;	COMDAT ??_C@_0N@IHFNHGBL@glPushMatrix@
CONST	SEGMENT
??_C@_0N@IHFNHGBL@glPushMatrix@ DB 'glPushMatrix', 00H	; `string'
CONST	ENDS
;	COMDAT ??_C@_0M@JPEAAEEK@glPopMatrix@
CONST	SEGMENT
??_C@_0M@JPEAAEEK@glPopMatrix@ DB 'glPopMatrix', 00H	; `string'
CONST	ENDS
;	COMDAT ??_C@_07DBAFHOII@glOrtho@
CONST	SEGMENT
??_C@_07DBAFHOII@glOrtho@ DB 'glOrtho', 00H		; `string'
CONST	ENDS
;	COMDAT ??_C@_0O@IFJFLNCL@glMultMatrixd@
CONST	SEGMENT
??_C@_0O@IFJFLNCL@glMultMatrixd@ DB 'glMultMatrixd', 00H ; `string'
CONST	ENDS
;	COMDAT ??_C@_0O@LHKDNPKJ@glMultMatrixf@
CONST	SEGMENT
??_C@_0O@LHKDNPKJ@glMultMatrixf@ DB 'glMultMatrixf', 00H ; `string'
CONST	ENDS
;	COMDAT ??_C@_0N@KDLNHKEJ@glMatrixMode@
CONST	SEGMENT
??_C@_0N@KDLNHKEJ@glMatrixMode@ DB 'glMatrixMode', 00H	; `string'
CONST	ENDS
;	COMDAT ??_C@_0O@LFHKEMK@glLoadMatrixd@
CONST	SEGMENT
??_C@_0O@LFHKEMK@glLoadMatrixd@ DB 'glLoadMatrixd', 00H	; `string'
CONST	ENDS
;	COMDAT ??_C@_0O@DJGBMGEI@glLoadMatrixf@
CONST	SEGMENT
??_C@_0O@DJGBMGEI@glLoadMatrixf@ DB 'glLoadMatrixf', 00H ; `string'
CONST	ENDS
;	COMDAT ??_C@_0P@EJAFHEPO@glLoadIdentity@
CONST	SEGMENT
??_C@_0P@EJAFHEPO@glLoadIdentity@ DB 'glLoadIdentity', 00H ; `string'
CONST	ENDS
;	COMDAT ??_C@_09ICLFHOKP@glFrustum@
CONST	SEGMENT
??_C@_09ICLFHOKP@glFrustum@ DB 'glFrustum', 00H		; `string'
CONST	ENDS
;	COMDAT ??_C@_08DMFMJKDH@glIsList@
CONST	SEGMENT
??_C@_08DMFMJKDH@glIsList@ DB 'glIsList', 00H		; `string'
CONST	ENDS
;	COMDAT ??_C@_0O@HOAMNHM@glGetTexGeniv@
CONST	SEGMENT
??_C@_0O@HOAMNHM@glGetTexGeniv@ DB 'glGetTexGeniv', 00H	; `string'
CONST	ENDS
;	COMDAT ??_C@_0O@MLMIKEB@glGetTexGenfv@
CONST	SEGMENT
??_C@_0O@MLMIKEB@glGetTexGenfv@ DB 'glGetTexGenfv', 00H	; `string'
CONST	ENDS
;	COMDAT ??_C@_0O@PDIFOCP@glGetTexGendv@
CONST	SEGMENT
??_C@_0O@PDIFOCP@glGetTexGendv@ DB 'glGetTexGendv', 00H	; `string'
CONST	ENDS
;	COMDAT ??_C@_0O@KIFFCCBG@glGetTexEnviv@
CONST	SEGMENT
??_C@_0O@KIFFCCBG@glGetTexEnviv@ DB 'glGetTexEnviv', 00H ; `string'
CONST	ENDS
;	COMDAT ??_C@_0O@KDAJGFCL@glGetTexEnvfv@
CONST	SEGMENT
??_C@_0O@KDAJGFCL@glGetTexEnvfv@ DB 'glGetTexEnvfv', 00H ; `string'
CONST	ENDS
;	COMDAT ??_C@_0BE@PBJHLEJI@glGetPolygonStipple@
CONST	SEGMENT
??_C@_0BE@PBJHLEJI@glGetPolygonStipple@ DB 'glGetPolygonStipple', 00H ; `string'
CONST	ENDS
;	COMDAT ??_C@_0BB@NHJEMOOF@glGetPixelMapusv@
CONST	SEGMENT
??_C@_0BB@NHJEMOOF@glGetPixelMapusv@ DB 'glGetPixelMapusv', 00H ; `string'
CONST	ENDS
;	COMDAT ??_C@_0BB@MGCFOIED@glGetPixelMapuiv@
CONST	SEGMENT
??_C@_0BB@MGCFOIED@glGetPixelMapuiv@ DB 'glGetPixelMapuiv', 00H ; `string'
CONST	ENDS
;	COMDAT ??_C@_0BA@EDGNDGIE@glGetPixelMapfv@
CONST	SEGMENT
??_C@_0BA@EDGNDGIE@glGetPixelMapfv@ DB 'glGetPixelMapfv', 00H ; `string'
CONST	ENDS
;	COMDAT ??_C@_0BA@GJKDADAB@glGetMaterialiv@
CONST	SEGMENT
??_C@_0BA@GJKDADAB@glGetMaterialiv@ DB 'glGetMaterialiv', 00H ; `string'
CONST	ENDS
;	COMDAT ??_C@_0BA@GCPPEEDM@glGetMaterialfv@
CONST	SEGMENT
??_C@_0BA@GCPPEEDM@glGetMaterialfv@ DB 'glGetMaterialfv', 00H ; `string'
CONST	ENDS
;	COMDAT ??_C@_0L@FOFLNEHD@glGetMapiv@
CONST	SEGMENT
??_C@_0L@FOFLNEHD@glGetMapiv@ DB 'glGetMapiv', 00H	; `string'
CONST	ENDS
;	COMDAT ??_C@_0L@FFAHJDEO@glGetMapfv@
CONST	SEGMENT
??_C@_0L@FFAHJDEO@glGetMapfv@ DB 'glGetMapfv', 00H	; `string'
CONST	ENDS
;	COMDAT ??_C@_0L@FGIDEHCA@glGetMapdv@
CONST	SEGMENT
??_C@_0L@FGIDEHCA@glGetMapdv@ DB 'glGetMapdv', 00H	; `string'
CONST	ENDS
;	COMDAT ??_C@_0N@MNDANBJN@glGetLightiv@
CONST	SEGMENT
??_C@_0N@MNDANBJN@glGetLightiv@ DB 'glGetLightiv', 00H	; `string'
CONST	ENDS
;	COMDAT ??_C@_0N@MGGMJGKA@glGetLightfv@
CONST	SEGMENT
??_C@_0N@MGGMJGKA@glGetLightfv@ DB 'glGetLightfv', 00H	; `string'
CONST	ENDS
;	COMDAT ??_C@_0P@MMMNLMC@glGetClipPlane@
CONST	SEGMENT
??_C@_0P@MMMNLMC@glGetClipPlane@ DB 'glGetClipPlane', 00H ; `string'
CONST	ENDS
;	COMDAT ??_C@_0N@FLFIHFDP@glDrawPixels@
CONST	SEGMENT
??_C@_0N@FLFIHFDP@glDrawPixels@ DB 'glDrawPixels', 00H	; `string'
CONST	ENDS
;	COMDAT ??_C@_0N@OACCOOE@glCopyPixels@
CONST	SEGMENT
??_C@_0N@OACCOOE@glCopyPixels@ DB 'glCopyPixels', 00H	; `string'
CONST	ENDS
;	COMDAT ??_C@_0O@FMEEPGOI@glPixelMapusv@
CONST	SEGMENT
??_C@_0O@FMEEPGOI@glPixelMapusv@ DB 'glPixelMapusv', 00H ; `string'
CONST	ENDS
;	COMDAT ??_C@_0O@ENPFNAEO@glPixelMapuiv@
CONST	SEGMENT
??_C@_0O@ENPFNAEO@glPixelMapuiv@ DB 'glPixelMapuiv', 00H ; `string'
CONST	ENDS
;	COMDAT ??_C@_0N@CNONNBNO@glPixelMapfv@
CONST	SEGMENT
??_C@_0N@CNONNBNO@glPixelMapfv@ DB 'glPixelMapfv', 00H	; `string'
CONST	ENDS
;	COMDAT ??_C@_0BB@IAMKJDIC@glPixelTransferi@
CONST	SEGMENT
??_C@_0BB@IAMKJDIC@glPixelTransferi@ DB 'glPixelTransferi', 00H ; `string'
CONST	ENDS
;	COMDAT ??_C@_0BB@HFCIPEN@glPixelTransferf@
CONST	SEGMENT
??_C@_0BB@HFCIPEN@glPixelTransferf@ DB 'glPixelTransferf', 00H ; `string'
CONST	ENDS
;	COMDAT ??_C@_0M@JAMJIGNB@glPixelZoom@
CONST	SEGMENT
??_C@_0M@JAMJIGNB@glPixelZoom@ DB 'glPixelZoom', 00H	; `string'
CONST	ENDS
;	COMDAT ??_C@_0M@BJGLMKCC@glAlphaFunc@
CONST	SEGMENT
??_C@_0M@BJGLMKCC@glAlphaFunc@ DB 'glAlphaFunc', 00H	; `string'
CONST	ENDS
;	COMDAT ??_C@_0N@BFGDHBFK@glEvalPoint2@
CONST	SEGMENT
??_C@_0N@BFGDHBFK@glEvalPoint2@ DB 'glEvalPoint2', 00H	; `string'
CONST	ENDS
;	COMDAT ??_C@_0M@BJHJGIPD@glEvalMesh2@
CONST	SEGMENT
??_C@_0M@BJHJGIPD@glEvalMesh2@ DB 'glEvalMesh2', 00H	; `string'
CONST	ENDS
;	COMDAT ??_C@_0N@DOEOCCJJ@glEvalPoint1@
CONST	SEGMENT
??_C@_0N@DOEOCCJJ@glEvalPoint1@ DB 'glEvalPoint1', 00H	; `string'
CONST	ENDS
;	COMDAT ??_C@_0M@DCFEDLDA@glEvalMesh1@
CONST	SEGMENT
??_C@_0M@DCFEDLDA@glEvalMesh1@ DB 'glEvalMesh1', 00H	; `string'
CONST	ENDS
;	COMDAT ??_C@_0P@LAAAJGBJ@glEvalCoord2fv@
CONST	SEGMENT
??_C@_0P@LAAAJGBJ@glEvalCoord2fv@ DB 'glEvalCoord2fv', 00H ; `string'
CONST	ENDS
;	COMDAT ??_C@_0O@GJGIOPHD@glEvalCoord2f@
CONST	SEGMENT
??_C@_0O@GJGIOPHD@glEvalCoord2f@ DB 'glEvalCoord2f', 00H ; `string'
CONST	ENDS
;	COMDAT ??_C@_0P@LDIEECHH@glEvalCoord2dv@
CONST	SEGMENT
??_C@_0P@LDIEECHH@glEvalCoord2dv@ DB 'glEvalCoord2dv', 00H ; `string'
CONST	ENDS
;	COMDAT ??_C@_0O@FLFOINPB@glEvalCoord2d@
CONST	SEGMENT
??_C@_0O@FLFOINPB@glEvalCoord2d@ DB 'glEvalCoord2d', 00H ; `string'
CONST	ENDS
;	COMDAT ??_C@_0P@KCLFDJPH@glEvalCoord1fv@
CONST	SEGMENT
??_C@_0P@KCLFDJPH@glEvalCoord1fv@ DB 'glEvalCoord1fv', 00H ; `string'
CONST	ENDS
;	COMDAT ??_C@_0O@GLCOFBCK@glEvalCoord1f@
CONST	SEGMENT
??_C@_0O@GLCOFBCK@glEvalCoord1f@ DB 'glEvalCoord1f', 00H ; `string'
CONST	ENDS
;	COMDAT ??_C@_0P@KBDBONJJ@glEvalCoord1dv@
CONST	SEGMENT
??_C@_0P@KBDBONJJ@glEvalCoord1dv@ DB 'glEvalCoord1dv', 00H ; `string'
CONST	ENDS
;	COMDAT ??_C@_0O@FJBIDDKI@glEvalCoord1d@
CONST	SEGMENT
??_C@_0O@FJBIDDKI@glEvalCoord1d@ DB 'glEvalCoord1d', 00H ; `string'
CONST	ENDS
;	COMDAT ??_C@_0M@PNEKFPAF@glMapGrid2f@
CONST	SEGMENT
??_C@_0M@PNEKFPAF@glMapGrid2f@ DB 'glMapGrid2f', 00H	; `string'
CONST	ENDS
;	COMDAT ??_C@_0M@MPHMDNIH@glMapGrid2d@
CONST	SEGMENT
??_C@_0M@MPHMDNIH@glMapGrid2d@ DB 'glMapGrid2d', 00H	; `string'
CONST	ENDS
;	COMDAT ??_C@_0M@PPAMOBFM@glMapGrid1f@
CONST	SEGMENT
??_C@_0M@PPAMOBFM@glMapGrid1f@ DB 'glMapGrid1f', 00H	; `string'
CONST	ENDS
;	COMDAT ??_C@_0M@MNDKIDNO@glMapGrid1d@
CONST	SEGMENT
??_C@_0M@MNDKIDNO@glMapGrid1d@ DB 'glMapGrid1d', 00H	; `string'
CONST	ENDS
;	COMDAT ??_C@_07GEAGLFKJ@glMap2f@
CONST	SEGMENT
??_C@_07GEAGLFKJ@glMap2f@ DB 'glMap2f', 00H		; `string'
CONST	ENDS
;	COMDAT ??_C@_07FGDANHCL@glMap2d@
CONST	SEGMENT
??_C@_07FGDANHCL@glMap2d@ DB 'glMap2d', 00H		; `string'
CONST	ENDS
;	COMDAT ??_C@_07GGEAALPA@glMap1f@
CONST	SEGMENT
??_C@_07GGEAALPA@glMap1f@ DB 'glMap1f', 00H		; `string'
CONST	ENDS
;	COMDAT ??_C@_07FEHGGJHC@glMap1d@
CONST	SEGMENT
??_C@_07FEHGGJHC@glMap1d@ DB 'glMap1d', 00H		; `string'
CONST	ENDS
;	COMDAT ??_C@_0N@KDMLHFJM@glPushAttrib@
CONST	SEGMENT
??_C@_0N@KDMLHFJM@glPushAttrib@ DB 'glPushAttrib', 00H	; `string'
CONST	ENDS
;	COMDAT ??_C@_0M@LLNGAHMN@glPopAttrib@
CONST	SEGMENT
??_C@_0M@LLNGAHMN@glPopAttrib@ DB 'glPopAttrib', 00H	; `string'
CONST	ENDS
;	COMDAT ??_C@_07LNIJJMEN@glAccum@
CONST	SEGMENT
??_C@_07LNIJJMEN@glAccum@ DB 'glAccum', 00H		; `string'
CONST	ENDS
;	COMDAT ??_C@_0M@ONDJOEOA@glIndexMask@
CONST	SEGMENT
??_C@_0M@ONDJOEOA@glIndexMask@ DB 'glIndexMask', 00H	; `string'
CONST	ENDS
;	COMDAT ??_C@_0N@EIILHCMH@glClearIndex@
CONST	SEGMENT
??_C@_0N@EIILHCMH@glClearIndex@ DB 'glClearIndex', 00H	; `string'
CONST	ENDS
;	COMDAT ??_C@_0N@OKAMEJMG@glClearAccum@
CONST	SEGMENT
??_C@_0N@OKAMEJMG@glClearAccum@ DB 'glClearAccum', 00H	; `string'
CONST	ENDS
;	COMDAT ??_C@_0L@LFFFABIK@glPushName@
CONST	SEGMENT
??_C@_0L@LFFFABIK@glPushName@ DB 'glPushName', 00H	; `string'
CONST	ENDS
;	COMDAT ??_C@_09IKDPIJOE@glPopName@
CONST	SEGMENT
??_C@_09IKDPIJOE@glPopName@ DB 'glPopName', 00H		; `string'
CONST	ENDS
;	COMDAT ??_C@_0O@KCIMMNEH@glPassThrough@
CONST	SEGMENT
??_C@_0O@KCIMMNEH@glPassThrough@ DB 'glPassThrough', 00H ; `string'
CONST	ENDS
;	COMDAT ??_C@_0L@JFFJNAJA@glLoadName@
CONST	SEGMENT
??_C@_0L@JFFJNAJA@glLoadName@ DB 'glLoadName', 00H	; `string'
CONST	ENDS
;	COMDAT ??_C@_0M@LBOBLINN@glInitNames@
CONST	SEGMENT
??_C@_0M@LBOBLINN@glInitNames@ DB 'glInitNames', 00H	; `string'
CONST	ENDS
;	COMDAT ??_C@_0N@HCFJFDGP@glRenderMode@
CONST	SEGMENT
??_C@_0N@HCFJFDGP@glRenderMode@ DB 'glRenderMode', 00H	; `string'
CONST	ENDS
;	COMDAT ??_C@_0P@KACPMBCN@glSelectBuffer@
CONST	SEGMENT
??_C@_0P@KACPMBCN@glSelectBuffer@ DB 'glSelectBuffer', 00H ; `string'
CONST	ENDS
;	COMDAT ??_C@_0BB@COFAIKCN@glFeedbackBuffer@
CONST	SEGMENT
??_C@_0BB@COFAIKCN@glFeedbackBuffer@ DB 'glFeedbackBuffer', 00H ; `string'
CONST	ENDS
;	COMDAT ??_C@_0L@OIGLGFLJ@glTexGeniv@
CONST	SEGMENT
??_C@_0L@OIGLGFLJ@glTexGeniv@ DB 'glTexGeniv', 00H	; `string'
CONST	ENDS
;	COMDAT ??_C@_09GKNHFOEO@glTexGeni@
CONST	SEGMENT
??_C@_09GKNHFOEO@glTexGeni@ DB 'glTexGeni', 00H		; `string'
CONST	ENDS
;	COMDAT ??_C@_0L@ODDHCCIE@glTexGenfv@
CONST	SEGMENT
??_C@_0L@ODDHCCIE@glTexGenfv@ DB 'glTexGenfv', 00H	; `string'
CONST	ENDS
;	COMDAT ??_C@_09ONEPECIB@glTexGenf@
CONST	SEGMENT
??_C@_09ONEPECIB@glTexGenf@ DB 'glTexGenf', 00H		; `string'
CONST	ENDS
;	COMDAT ??_C@_0L@OALDPGOK@glTexGendv@
CONST	SEGMENT
??_C@_0L@OALDPGOK@glTexGendv@ DB 'glTexGendv', 00H	; `string'
CONST	ENDS
;	COMDAT ??_C@_09NPHJCAAD@glTexGend@
CONST	SEGMENT
??_C@_09NPHJCAAD@glTexGend@ DB 'glTexGend', 00H		; `string'
CONST	ENDS
;	COMDAT ??_C@_0L@EHNOIKND@glTexEnviv@
CONST	SEGMENT
??_C@_0L@EHNOIKND@glTexEnviv@ DB 'glTexEnviv', 00H	; `string'
CONST	ENDS
;	COMDAT ??_C@_09NFCDHIOH@glTexEnvi@
CONST	SEGMENT
??_C@_09NFCDHIOH@glTexEnvi@ DB 'glTexEnvi', 00H		; `string'
CONST	ENDS
;	COMDAT ??_C@_0L@EMICMNOO@glTexEnvfv@
CONST	SEGMENT
??_C@_0L@EMICMNOO@glTexEnvfv@ DB 'glTexEnvfv', 00H	; `string'
CONST	ENDS
;	COMDAT ??_C@_09FCLLGECI@glTexEnvf@
CONST	SEGMENT
??_C@_09FCLLGECI@glTexEnvf@ DB 'glTexEnvf', 00H		; `string'
CONST	ENDS
;	COMDAT ??_C@_0N@NALMFHKN@glShadeModel@
CONST	SEGMENT
??_C@_0N@NALMFHKN@glShadeModel@ DB 'glShadeModel', 00H	; `string'
CONST	ENDS
;	COMDAT ??_C@_0BB@GIADEJGP@glPolygonStipple@
CONST	SEGMENT
??_C@_0BB@GIADEJGP@glPolygonStipple@ DB 'glPolygonStipple', 00H ; `string'
CONST	ENDS
;	COMDAT ??_C@_0N@HCDOEFL@glMaterialiv@
CONST	SEGMENT
??_C@_0N@HCDOEFL@glMaterialiv@ DB 'glMaterialiv', 00H	; `string'
CONST	ENDS
;	COMDAT ??_C@_0M@PHEGJGAN@glMateriali@
CONST	SEGMENT
??_C@_0M@PHEGJGAN@glMateriali@ DB 'glMateriali', 00H	; `string'
CONST	ENDS
;	COMDAT ??_C@_0N@MHPKDGG@glMaterialfv@
CONST	SEGMENT
??_C@_0N@MHPKDGG@glMaterialfv@ DB 'glMaterialfv', 00H	; `string'
CONST	ENDS
;	COMDAT ??_C@_0M@HANOIKMC@glMaterialf@
CONST	SEGMENT
??_C@_0M@HANOIKMC@glMaterialf@ DB 'glMaterialf', 00H	; `string'
CONST	ENDS
;	COMDAT ??_C@_0O@LDOINBOK@glLineStipple@
CONST	SEGMENT
??_C@_0O@LDOINBOK@glLineStipple@ DB 'glLineStipple', 00H ; `string'
CONST	ENDS
;	COMDAT ??_C@_0P@JBCFLLOP@glLightModeliv@
CONST	SEGMENT
??_C@_0P@JBCFLLOP@glLightModeliv@ DB 'glLightModeliv', 00H ; `string'
CONST	ENDS
;	COMDAT ??_C@_0O@PILBKMEH@glLightModeli@
CONST	SEGMENT
??_C@_0O@PILBKMEH@glLightModeli@ DB 'glLightModeli', 00H ; `string'
CONST	ENDS
;	COMDAT ??_C@_0P@JKHJPMNC@glLightModelfv@
CONST	SEGMENT
??_C@_0P@JKHJPMNC@glLightModelfv@ DB 'glLightModelfv', 00H ; `string'
CONST	ENDS
;	COMDAT ??_C@_0O@HPCJLAII@glLightModelf@
CONST	SEGMENT
??_C@_0O@HPCJLAII@glLightModelf@ DB 'glLightModelf', 00H ; `string'
CONST	ENDS
;	COMDAT ??_C@_09JDIIDONO@glLightiv@
CONST	SEGMENT
??_C@_09JDIIDONO@glLightiv@ DB 'glLightiv', 00H		; `string'
CONST	ENDS
;	COMDAT ??_C@_08DIKHJHIE@glLighti@
CONST	SEGMENT
??_C@_08DIKHJHIE@glLighti@ DB 'glLighti', 00H		; `string'
CONST	ENDS
;	COMDAT ??_C@_09JINEHJOD@glLightfv@
CONST	SEGMENT
??_C@_09JINEHJOD@glLightfv@ DB 'glLightfv', 00H		; `string'
CONST	ENDS
;	COMDAT ??_C@_08LPDPILEL@glLightf@
CONST	SEGMENT
??_C@_08LPDPILEL@glLightf@ DB 'glLightf', 00H		; `string'
CONST	ENDS
;	COMDAT ??_C@_07FGBEEHCN@glFogiv@
CONST	SEGMENT
??_C@_07FGBEEHCN@glFogiv@ DB 'glFogiv', 00H		; `string'
CONST	ENDS
;	COMDAT ??_C@_06BOOFNKDM@glFogi@
CONST	SEGMENT
??_C@_06BOOFNKDM@glFogi@ DB 'glFogi', 00H		; `string'
CONST	ENDS
;	COMDAT ??_C@_07FNEIAABA@glFogfv@
CONST	SEGMENT
??_C@_07FNEIAABA@glFogfv@ DB 'glFogfv', 00H		; `string'
CONST	ENDS
;	COMDAT ??_C@_06JJHNMGPD@glFogf@
CONST	SEGMENT
??_C@_06JJHNMGPD@glFogf@ DB 'glFogf', 00H		; `string'
CONST	ENDS
;	COMDAT ??_C@_0BA@OOEHEGPC@glColorMaterial@
CONST	SEGMENT
??_C@_0BA@OOEHEGPC@glColorMaterial@ DB 'glColorMaterial', 00H ; `string'
CONST	ENDS
;	COMDAT ??_C@_0M@OHCNGGFF@glClipPlane@
CONST	SEGMENT
??_C@_0M@OHCNGGFF@glClipPlane@ DB 'glClipPlane', 00H	; `string'
CONST	ENDS
;	COMDAT ??_C@_0M@BHICLKLB@glVertex4sv@
CONST	SEGMENT
??_C@_0M@BHICLKLB@glVertex4sv@ DB 'glVertex4sv', 00H	; `string'
CONST	ENDS
;	COMDAT ??_C@_0L@IMGCCGJH@glVertex4s@
CONST	SEGMENT
??_C@_0L@IMGCCGJH@glVertex4s@ DB 'glVertex4s', 00H	; `string'
CONST	ENDS
;	COMDAT ??_C@_0M@GDDJMBH@glVertex4iv@
CONST	SEGMENT
??_C@_0M@GDDJMBH@glVertex4iv@ DB 'glVertex4iv', 00H	; `string'
CONST	ENDS
;	COMDAT ??_C@_0L@DMEPNMEM@glVertex4i@
CONST	SEGMENT
??_C@_0L@DMEPNMEM@glVertex4i@ DB 'glVertex4i', 00H	; `string'
CONST	ENDS
;	COMDAT ??_C@_0M@NGPNLCK@glVertex4fv@
CONST	SEGMENT
??_C@_0M@NGPNLCK@glVertex4fv@ DB 'glVertex4fv', 00H	; `string'
CONST	ENDS
;	COMDAT ??_C@_0L@LLNHMAID@glVertex4f@
CONST	SEGMENT
??_C@_0L@LLNHMAID@glVertex4f@ DB 'glVertex4f', 00H	; `string'
CONST	ENDS
;	COMDAT ??_C@_0M@OOLAPEE@glVertex4dv@
CONST	SEGMENT
??_C@_0M@OOLAPEE@glVertex4dv@ DB 'glVertex4dv', 00H	; `string'
CONST	ENDS
;	COMDAT ??_C@_0L@IJOBKCAB@glVertex4d@
CONST	SEGMENT
??_C@_0L@IJOBKCAB@glVertex4d@ DB 'glVertex4d', 00H	; `string'
CONST	ENDS
;	COMDAT ??_C@_0M@IKFFICAI@glVertex3sv@
CONST	SEGMENT
??_C@_0M@IKFFICAI@glVertex3sv@ DB 'glVertex3sv', 00H	; `string'
CONST	ENDS
;	COMDAT ??_C@_0L@IJCNDABC@glVertex3s@
CONST	SEGMENT
??_C@_0L@IJCNDABC@glVertex3s@ DB 'glVertex3s', 00H	; `string'
CONST	ENDS
;	COMDAT ??_C@_0M@JLOEKEKO@glVertex3iv@
CONST	SEGMENT
??_C@_0M@JLOEKEKO@glVertex3iv@ DB 'glVertex3iv', 00H	; `string'
CONST	ENDS
;	COMDAT ??_C@_0L@DJAAMKMJ@glVertex3i@
CONST	SEGMENT
??_C@_0L@DJAAMKMJ@glVertex3i@ DB 'glVertex3i', 00H	; `string'
CONST	ENDS
;	COMDAT ??_C@_0M@JALIODJD@glVertex3fv@
CONST	SEGMENT
??_C@_0M@JALIODJD@glVertex3fv@ DB 'glVertex3fv', 00H	; `string'
CONST	ENDS
;	COMDAT ??_C@_0L@LOJINGAG@glVertex3f@
CONST	SEGMENT
??_C@_0L@LOJINGAG@glVertex3f@ DB 'glVertex3f', 00H	; `string'
CONST	ENDS
;	COMDAT ??_C@_0M@JDDMDHPN@glVertex3dv@
CONST	SEGMENT
??_C@_0M@JDDMDHPN@glVertex3dv@ DB 'glVertex3dv', 00H	; `string'
CONST	ENDS
;	COMDAT ??_C@_0L@IMKOLEIE@glVertex3d@
CONST	SEGMENT
??_C@_0L@IMKOLEIE@glVertex3d@ DB 'glVertex3d', 00H	; `string'
CONST	ENDS
;	COMDAT ??_C@_0M@DCOJOFGN@glVertex2sv@
CONST	SEGMENT
??_C@_0M@DCOJOFGN@glVertex2sv@ DB 'glVertex2sv', 00H	; `string'
CONST	ENDS
;	COMDAT ??_C@_0L@IIOPFKCF@glVertex2s@
CONST	SEGMENT
??_C@_0L@IIOPFKCF@glVertex2s@ DB 'glVertex2s', 00H	; `string'
CONST	ENDS
;	COMDAT ??_C@_0M@CDFIMDML@glVertex2iv@
CONST	SEGMENT
??_C@_0M@CDFIMDML@glVertex2iv@ DB 'glVertex2iv', 00H	; `string'
CONST	ENDS
;	COMDAT ??_C@_0L@DIMCKAPO@glVertex2i@
CONST	SEGMENT
??_C@_0L@DIMCKAPO@glVertex2i@ DB 'glVertex2i', 00H	; `string'
CONST	ENDS
;	COMDAT ??_C@_0M@CIAEIEPG@glVertex2fv@
CONST	SEGMENT
??_C@_0M@CIAEIEPG@glVertex2fv@ DB 'glVertex2fv', 00H	; `string'
CONST	ENDS
;	COMDAT ??_C@_0L@LPFKLMDB@glVertex2f@
CONST	SEGMENT
??_C@_0L@LPFKLMDB@glVertex2f@ DB 'glVertex2f', 00H	; `string'
CONST	ENDS
;	COMDAT ??_C@_0M@CLIAFAJI@glVertex2dv@
CONST	SEGMENT
??_C@_0M@CLIAFAJI@glVertex2dv@ DB 'glVertex2dv', 00H	; `string'
CONST	ENDS
;	COMDAT ??_C@_0L@INGMNOLD@glVertex2d@
CONST	SEGMENT
??_C@_0L@INGMNOLD@glVertex2d@ DB 'glVertex2d', 00H	; `string'
CONST	ENDS
;	COMDAT ??_C@_0O@EBJEPFAA@glTexCoord4sv@
CONST	SEGMENT
??_C@_0O@EBJEPFAA@glTexCoord4sv@ DB 'glTexCoord4sv', 00H ; `string'
CONST	ENDS
;	COMDAT ??_C@_0N@CJOJLEKC@glTexCoord4s@
CONST	SEGMENT
??_C@_0N@CJOJLEKC@glTexCoord4s@ DB 'glTexCoord4s', 00H	; `string'
CONST	ENDS
;	COMDAT ??_C@_0O@FACFNDKG@glTexCoord4iv@
CONST	SEGMENT
??_C@_0O@FACFNDKG@glTexCoord4iv@ DB 'glTexCoord4iv', 00H ; `string'
CONST	ENDS
;	COMDAT ??_C@_0N@JJMEEOHJ@glTexCoord4i@
CONST	SEGMENT
??_C@_0N@JJMEEOHJ@glTexCoord4i@ DB 'glTexCoord4i', 00H	; `string'
CONST	ENDS
;	COMDAT ??_C@_0O@FLHJJEJL@glTexCoord4fv@
CONST	SEGMENT
??_C@_0O@FLHJJEJL@glTexCoord4fv@ DB 'glTexCoord4fv', 00H ; `string'
CONST	ENDS
;	COMDAT ??_C@_0N@BOFMFCLG@glTexCoord4f@
CONST	SEGMENT
??_C@_0N@BOFMFCLG@glTexCoord4f@ DB 'glTexCoord4f', 00H	; `string'
CONST	ENDS
;	COMDAT ??_C@_0O@FIPNEAPF@glTexCoord4dv@
CONST	SEGMENT
??_C@_0O@FIPNEAPF@glTexCoord4dv@ DB 'glTexCoord4dv', 00H ; `string'
CONST	ENDS
;	COMDAT ??_C@_0N@CMGKDADE@glTexCoord4d@
CONST	SEGMENT
??_C@_0N@CMGKDADE@glTexCoord4d@ DB 'glTexCoord4d', 00H	; `string'
CONST	ENDS
;	COMDAT ??_C@_0O@NMEDMNLJ@glTexCoord3sv@
CONST	SEGMENT
??_C@_0O@NMEDMNLJ@glTexCoord3sv@ DB 'glTexCoord3sv', 00H ; `string'
CONST	ENDS
;	COMDAT ??_C@_0N@CMKGKCCH@glTexCoord3s@
CONST	SEGMENT
??_C@_0N@CMKGKCCH@glTexCoord3s@ DB 'glTexCoord3s', 00H	; `string'
CONST	ENDS
;	COMDAT ??_C@_0O@MNPCOLBP@glTexCoord3iv@
CONST	SEGMENT
??_C@_0O@MNPCOLBP@glTexCoord3iv@ DB 'glTexCoord3iv', 00H ; `string'
CONST	ENDS
;	COMDAT ??_C@_0N@JMILFIPM@glTexCoord3i@
CONST	SEGMENT
??_C@_0N@JMILFIPM@glTexCoord3i@ DB 'glTexCoord3i', 00H	; `string'
CONST	ENDS
;	COMDAT ??_C@_0O@MGKOKMCC@glTexCoord3fv@
CONST	SEGMENT
??_C@_0O@MGKOKMCC@glTexCoord3fv@ DB 'glTexCoord3fv', 00H ; `string'
CONST	ENDS
;	COMDAT ??_C@_0N@BLBDEEDD@glTexCoord3f@
CONST	SEGMENT
??_C@_0N@BLBDEEDD@glTexCoord3f@ DB 'glTexCoord3f', 00H	; `string'
CONST	ENDS
;	COMDAT ??_C@_0O@MFCKHIEM@glTexCoord3dv@
CONST	SEGMENT
??_C@_0O@MFCKHIEM@glTexCoord3dv@ DB 'glTexCoord3dv', 00H ; `string'
CONST	ENDS
;	COMDAT ??_C@_0N@CJCFCGLB@glTexCoord3d@
CONST	SEGMENT
??_C@_0N@CJCFCGLB@glTexCoord3d@ DB 'glTexCoord3d', 00H	; `string'
CONST	ENDS
;	COMDAT ??_C@_0O@GEPPKKNM@glTexCoord2sv@
CONST	SEGMENT
??_C@_0O@GEPPKKNM@glTexCoord2sv@ DB 'glTexCoord2sv', 00H ; `string'
CONST	ENDS
;	COMDAT ??_C@_0N@CNGEMIBA@glTexCoord2s@
CONST	SEGMENT
??_C@_0N@CNGEMIBA@glTexCoord2s@ DB 'glTexCoord2s', 00H	; `string'
CONST	ENDS
;	COMDAT ??_C@_0O@HFEOIMHK@glTexCoord2iv@
CONST	SEGMENT
??_C@_0O@HFEOIMHK@glTexCoord2iv@ DB 'glTexCoord2iv', 00H ; `string'
CONST	ENDS
;	COMDAT ??_C@_0N@JNEJDCML@glTexCoord2i@
CONST	SEGMENT
??_C@_0N@JNEJDCML@glTexCoord2i@ DB 'glTexCoord2i', 00H	; `string'
CONST	ENDS
;	COMDAT ??_C@_0O@HOBCMLEH@glTexCoord2fv@
CONST	SEGMENT
??_C@_0O@HOBCMLEH@glTexCoord2fv@ DB 'glTexCoord2fv', 00H ; `string'
CONST	ENDS
;	COMDAT ??_C@_0N@BKNBCOAE@glTexCoord2f@
CONST	SEGMENT
??_C@_0N@BKNBCOAE@glTexCoord2f@ DB 'glTexCoord2f', 00H	; `string'
CONST	ENDS
;	COMDAT ??_C@_0O@HNJGBPCJ@glTexCoord2dv@
CONST	SEGMENT
??_C@_0O@HNJGBPCJ@glTexCoord2dv@ DB 'glTexCoord2dv', 00H ; `string'
CONST	ENDS
;	COMDAT ??_C@_0N@CIOHEMIG@glTexCoord2d@
CONST	SEGMENT
??_C@_0N@CIOHEMIG@glTexCoord2d@ DB 'glTexCoord2d', 00H	; `string'
CONST	ENDS
;	COMDAT ??_C@_0O@HGEKAFDC@glTexCoord1sv@
CONST	SEGMENT
??_C@_0O@HGEKAFDC@glTexCoord1sv@ DB 'glTexCoord1sv', 00H ; `string'
CONST	ENDS
;	COMDAT ??_C@_0N@CPCCHGEJ@glTexCoord1s@
CONST	SEGMENT
??_C@_0N@CPCCHGEJ@glTexCoord1s@ DB 'glTexCoord1s', 00H	; `string'
CONST	ENDS
;	COMDAT ??_C@_0O@GHPLCDJE@glTexCoord1iv@
CONST	SEGMENT
??_C@_0O@GHPLCDJE@glTexCoord1iv@ DB 'glTexCoord1iv', 00H ; `string'
CONST	ENDS
;	COMDAT ??_C@_0N@JPAPIMJC@glTexCoord1i@
CONST	SEGMENT
??_C@_0N@JPAPIMJC@glTexCoord1i@ DB 'glTexCoord1i', 00H	; `string'
CONST	ENDS
;	COMDAT ??_C@_0O@GMKHGEKJ@glTexCoord1fv@
CONST	SEGMENT
??_C@_0O@GMKHGEKJ@glTexCoord1fv@ DB 'glTexCoord1fv', 00H ; `string'
CONST	ENDS
;	COMDAT ??_C@_0N@BIJHJAFN@glTexCoord1f@
CONST	SEGMENT
??_C@_0N@BIJHJAFN@glTexCoord1f@ DB 'glTexCoord1f', 00H	; `string'
CONST	ENDS
;	COMDAT ??_C@_0O@GPCDLAMH@glTexCoord1dv@
CONST	SEGMENT
??_C@_0O@GPCDLAMH@glTexCoord1dv@ DB 'glTexCoord1dv', 00H ; `string'
CONST	ENDS
;	COMDAT ??_C@_0N@CKKBPCNP@glTexCoord1d@
CONST	SEGMENT
??_C@_0N@CKKBPCNP@glTexCoord1d@ DB 'glTexCoord1d', 00H	; `string'
CONST	ENDS
;	COMDAT ??_C@_08FPNOOGJA@glRectsv@
CONST	SEGMENT
??_C@_08FPNOOGJA@glRectsv@ DB 'glRectsv', 00H		; `string'
CONST	ENDS
;	COMDAT ??_C@_07GCAIEMDA@glRects@
CONST	SEGMENT
??_C@_07GCAIEMDA@glRects@ DB 'glRects', 00H		; `string'
CONST	ENDS
;	COMDAT ??_C@_08EOGPMADG@glRectiv@
CONST	SEGMENT
??_C@_08EOGPMADG@glRectiv@ DB 'glRectiv', 00H		; `string'
CONST	ENDS
;	COMDAT ??_C@_07NCCFLGOL@glRecti@
CONST	SEGMENT
??_C@_07NCCFLGOL@glRecti@ DB 'glRecti', 00H		; `string'
CONST	ENDS
;	COMDAT ??_C@_08EFDDIHAL@glRectfv@
CONST	SEGMENT
??_C@_08EFDDIHAL@glRectfv@ DB 'glRectfv', 00H		; `string'
CONST	ENDS
;	COMDAT ??_C@_07FFLNKKCE@glRectf@
CONST	SEGMENT
??_C@_07FFLNKKCE@glRectf@ DB 'glRectf', 00H		; `string'
CONST	ENDS
;	COMDAT ??_C@_08EGLHFDGF@glRectdv@
CONST	SEGMENT
??_C@_08EGLHFDGF@glRectdv@ DB 'glRectdv', 00H		; `string'
CONST	ENDS
;	COMDAT ??_C@_07GHILMIKG@glRectd@
CONST	SEGMENT
??_C@_07GHILMIKG@glRectd@ DB 'glRectd', 00H		; `string'
CONST	ENDS
;	COMDAT ??_C@_0P@NJGHOAAG@glRasterPos4sv@
CONST	SEGMENT
??_C@_0P@NJGHOAAG@glRasterPos4sv@ DB 'glRasterPos4sv', 00H ; `string'
CONST	ENDS
;	COMDAT ??_C@_0O@INMAOOA@glRasterPos4s@
CONST	SEGMENT
??_C@_0O@INMAOOA@glRasterPos4s@ DB 'glRasterPos4s', 00H	; `string'
CONST	ENDS
;	COMDAT ??_C@_0P@MINGMGKA@glRasterPos4iv@
CONST	SEGMENT
??_C@_0P@MINGMGKA@glRasterPos4iv@ DB 'glRasterPos4iv', 00H ; `string'
CONST	ENDS
;	COMDAT ??_C@_0O@LIPBPEDL@glRasterPos4i@
CONST	SEGMENT
??_C@_0O@LIPBPEDL@glRasterPos4i@ DB 'glRasterPos4i', 00H ; `string'
CONST	ENDS
;	COMDAT ??_C@_0P@MDIKIBJN@glRasterPos4fv@
CONST	SEGMENT
??_C@_0P@MDIKIBJN@glRasterPos4fv@ DB 'glRasterPos4fv', 00H ; `string'
CONST	ENDS
;	COMDAT ??_C@_0O@DPGJOIPE@glRasterPos4f@
CONST	SEGMENT
??_C@_0O@DPGJOIPE@glRasterPos4f@ DB 'glRasterPos4f', 00H ; `string'
CONST	ENDS
;	COMDAT ??_C@_0P@MAAOFFPD@glRasterPos4dv@
CONST	SEGMENT
??_C@_0P@MAAOFFPD@glRasterPos4dv@ DB 'glRasterPos4dv', 00H ; `string'
CONST	ENDS
;	COMDAT ??_C@_0O@NFPIKHG@glRasterPos4d@
CONST	SEGMENT
??_C@_0O@NFPIKHG@glRasterPos4d@ DB 'glRasterPos4d', 00H	; `string'
CONST	ENDS
;	COMDAT ??_C@_0P@EELANILP@glRasterPos3sv@
CONST	SEGMENT
??_C@_0P@EELANILP@glRasterPos3sv@ DB 'glRasterPos3sv', 00H ; `string'
CONST	ENDS
;	COMDAT ??_C@_0O@NJDBIGF@glRasterPos3s@
CONST	SEGMENT
??_C@_0O@NJDBIGF@glRasterPos3s@ DB 'glRasterPos3s', 00H	; `string'
CONST	ENDS
;	COMDAT ??_C@_0P@FFABPOBJ@glRasterPos3iv@
CONST	SEGMENT
??_C@_0P@FFABPOBJ@glRasterPos3iv@ DB 'glRasterPos3iv', 00H ; `string'
CONST	ENDS
;	COMDAT ??_C@_0O@LNLOOCLO@glRasterPos3i@
CONST	SEGMENT
??_C@_0O@LNLOOCLO@glRasterPos3i@ DB 'glRasterPos3i', 00H ; `string'
CONST	ENDS
;	COMDAT ??_C@_0P@FOFNLJCE@glRasterPos3fv@
CONST	SEGMENT
??_C@_0P@FOFNLJCE@glRasterPos3fv@ DB 'glRasterPos3fv', 00H ; `string'
CONST	ENDS
;	COMDAT ??_C@_0O@DKCGPOHB@glRasterPos3f@
CONST	SEGMENT
??_C@_0O@DKCGPOHB@glRasterPos3f@ DB 'glRasterPos3f', 00H ; `string'
CONST	ENDS
;	COMDAT ??_C@_0P@FNNJGNEK@glRasterPos3dv@
CONST	SEGMENT
??_C@_0P@FNNJGNEK@glRasterPos3dv@ DB 'glRasterPos3dv', 00H ; `string'
CONST	ENDS
;	COMDAT ??_C@_0O@IBAJMPD@glRasterPos3d@
CONST	SEGMENT
??_C@_0O@IBAJMPD@glRasterPos3d@ DB 'glRasterPos3d', 00H	; `string'
CONST	ENDS
;	COMDAT ??_C@_0P@PMAMLPNK@glRasterPos2sv@
CONST	SEGMENT
??_C@_0P@PMAMLPNK@glRasterPos2sv@ DB 'glRasterPos2sv', 00H ; `string'
CONST	ENDS
;	COMDAT ??_C@_0O@MFBHCFC@glRasterPos2s@
CONST	SEGMENT
??_C@_0O@MFBHCFC@glRasterPos2s@ DB 'glRasterPos2s', 00H	; `string'
CONST	ENDS
;	COMDAT ??_C@_0P@ONLNJJHM@glRasterPos2iv@
CONST	SEGMENT
??_C@_0P@ONLNJJHM@glRasterPos2iv@ DB 'glRasterPos2iv', 00H ; `string'
CONST	ENDS
;	COMDAT ??_C@_0O@LMHMIIIJ@glRasterPos2i@
CONST	SEGMENT
??_C@_0O@LMHMIIIJ@glRasterPos2i@ DB 'glRasterPos2i', 00H ; `string'
CONST	ENDS
;	COMDAT ??_C@_0P@OGOBNOEB@glRasterPos2fv@
CONST	SEGMENT
??_C@_0P@OGOBNOEB@glRasterPos2fv@ DB 'glRasterPos2fv', 00H ; `string'
CONST	ENDS
;	COMDAT ??_C@_0O@DLOEJEEG@glRasterPos2f@
CONST	SEGMENT
??_C@_0O@DLOEJEEG@glRasterPos2f@ DB 'glRasterPos2f', 00H ; `string'
CONST	ENDS
;	COMDAT ??_C@_0P@OFGFAKCP@glRasterPos2dv@
CONST	SEGMENT
??_C@_0P@OFGFAKCP@glRasterPos2dv@ DB 'glRasterPos2dv', 00H ; `string'
CONST	ENDS
;	COMDAT ??_C@_0O@JNCPGME@glRasterPos2d@
CONST	SEGMENT
??_C@_0O@JNCPGME@glRasterPos2d@ DB 'glRasterPos2d', 00H	; `string'
CONST	ENDS
;	COMDAT ??_C@_0M@NHLFGDMD@glNormal3sv@
CONST	SEGMENT
??_C@_0M@NHLFGDMD@glNormal3sv@ DB 'glNormal3sv', 00H	; `string'
CONST	ENDS
;	COMDAT ??_C@_0L@BNHPJOI@glNormal3s@
CONST	SEGMENT
??_C@_0L@BNHPJOI@glNormal3s@ DB 'glNormal3s', 00H	; `string'
CONST	ENDS
;	COMDAT ??_C@_0M@MGAEEFGF@glNormal3iv@
CONST	SEGMENT
??_C@_0M@MGAEEFGF@glNormal3iv@ DB 'glNormal3iv', 00H	; `string'
CONST	ENDS
;	COMDAT ??_C@_0L@LBPKADDD@glNormal3i@
CONST	SEGMENT
??_C@_0L@LBPKADDD@glNormal3i@ DB 'glNormal3i', 00H	; `string'
CONST	ENDS
;	COMDAT ??_C@_0M@MNFIACFI@glNormal3fv@
CONST	SEGMENT
??_C@_0M@MNFIACFI@glNormal3fv@ DB 'glNormal3fv', 00H	; `string'
CONST	ENDS
;	COMDAT ??_C@_0L@DGGCBPPM@glNormal3f@
CONST	SEGMENT
??_C@_0L@DGGCBPPM@glNormal3f@ DB 'glNormal3f', 00H	; `string'
CONST	ENDS
;	COMDAT ??_C@_0M@MONMNGDG@glNormal3dv@
CONST	SEGMENT
??_C@_0M@MONMNGDG@glNormal3dv@ DB 'glNormal3dv', 00H	; `string'
CONST	ENDS
;	COMDAT ??_C@_0L@EFEHNHO@glNormal3d@
CONST	SEGMENT
??_C@_0L@EFEHNHO@glNormal3d@ DB 'glNormal3d', 00H	; `string'
CONST	ENDS
;	COMDAT ??_C@_0M@MKFBKKIE@glNormal3bv@
CONST	SEGMENT
??_C@_0M@MKFBKKIE@glNormal3bv@ DB 'glNormal3bv', 00H	; `string'
CONST	ENDS
;	COMDAT ??_C@_0L@FCAONKPI@glNormal3b@
CONST	SEGMENT
??_C@_0L@FCAONKPI@glNormal3b@ DB 'glNormal3b', 00H	; `string'
CONST	ENDS
;	COMDAT ??_C@_09DLKMCBDF@glIndexsv@
CONST	SEGMENT
??_C@_09DLKMCBDF@glIndexsv@ DB 'glIndexsv', 00H		; `string'
CONST	ENDS
;	COMDAT ??_C@_08HLGHCJCJ@glIndexs@
CONST	SEGMENT
??_C@_08HLGHCJCJ@glIndexs@ DB 'glIndexs', 00H		; `string'
CONST	ENDS
;	COMDAT ??_C@_09CKBNAHJD@glIndexiv@
CONST	SEGMENT
??_C@_09CKBNAHJD@glIndexiv@ DB 'glIndexiv', 00H		; `string'
CONST	ENDS
;	COMDAT ??_C@_08MLEKNDPC@glIndexi@
CONST	SEGMENT
??_C@_08MLEKNDPC@glIndexi@ DB 'glIndexi', 00H		; `string'
CONST	ENDS
;	COMDAT ??_C@_09CBEBEAKO@glIndexfv@
CONST	SEGMENT
??_C@_09CBEBEAKO@glIndexfv@ DB 'glIndexfv', 00H		; `string'
CONST	ENDS
;	COMDAT ??_C@_08EMNCMPDN@glIndexf@
CONST	SEGMENT
??_C@_08EMNCMPDN@glIndexf@ DB 'glIndexf', 00H		; `string'
CONST	ENDS
;	COMDAT ??_C@_09CCMFJEMA@glIndexdv@
CONST	SEGMENT
??_C@_09CCMFJEMA@glIndexdv@ DB 'glIndexdv', 00H		; `string'
CONST	ENDS
;	COMDAT ??_C@_08HOOEKNLP@glIndexd@
CONST	SEGMENT
??_C@_08HOOEKNLP@glIndexd@ DB 'glIndexd', 00H		; `string'
CONST	ENDS
;	COMDAT ??_C@_05OIBMBLHE@glEnd@
CONST	SEGMENT
??_C@_05OIBMBLHE@glEnd@ DB 'glEnd', 00H			; `string'
CONST	ENDS
;	COMDAT ??_C@_0M@MKDGIOMK@glEdgeFlagv@
CONST	SEGMENT
??_C@_0M@MKDGIOMK@glEdgeFlagv@ DB 'glEdgeFlagv', 00H	; `string'
CONST	ENDS
;	COMDAT ??_C@_0L@DFCKJEPI@glEdgeFlag@
CONST	SEGMENT
??_C@_0L@DFCKJEPI@glEdgeFlag@ DB 'glEdgeFlag', 00H	; `string'
CONST	ENDS
;	COMDAT ??_C@_0M@OPLLCJJN@glColor4usv@
CONST	SEGMENT
??_C@_0M@OPLLCJJN@glColor4usv@ DB 'glColor4usv', 00H	; `string'
CONST	ENDS
;	COMDAT ??_C@_0L@NHFPGDEK@glColor4us@
CONST	SEGMENT
??_C@_0L@NHFPGDEK@glColor4us@ DB 'glColor4us', 00H	; `string'
CONST	ENDS
;	COMDAT ??_C@_0M@POAKAPDL@glColor4uiv@
CONST	SEGMENT
??_C@_0M@POAKAPDL@glColor4uiv@ DB 'glColor4uiv', 00H	; `string'
CONST	ENDS
;	COMDAT ??_C@_0L@GHHCJJJB@glColor4ui@
CONST	SEGMENT
??_C@_0L@GHHCJJJB@glColor4ui@ DB 'glColor4ui', 00H	; `string'
CONST	ENDS
;	COMDAT ??_C@_0M@PCFPOANK@glColor4ubv@
CONST	SEGMENT
??_C@_0M@PCFPOANK@glColor4ubv@ DB 'glColor4ubv', 00H	; `string'
CONST	ENDS
;	COMDAT ??_C@_0L@IEIGEAFK@glColor4ub@
CONST	SEGMENT
??_C@_0L@IEIGEAFK@glColor4ub@ DB 'glColor4ub', 00H	; `string'
CONST	ENDS
;	COMDAT ??_C@_0L@KOKFOLLN@glColor4sv@
CONST	SEGMENT
??_C@_0L@KOKFOLLN@glColor4sv@ DB 'glColor4sv', 00H	; `string'
CONST	ENDS
;	COMDAT ??_C@_09MNOHCDOB@glColor4s@
CONST	SEGMENT
??_C@_09MNOHCDOB@glColor4s@ DB 'glColor4s', 00H		; `string'
CONST	ENDS
;	COMDAT ??_C@_0L@LPBEMNBL@glColor4iv@
CONST	SEGMENT
??_C@_0L@LPBEMNBL@glColor4iv@ DB 'glColor4iv', 00H	; `string'
CONST	ENDS
;	COMDAT ??_C@_09HNMKNJDK@glColor4i@
CONST	SEGMENT
??_C@_09HNMKNJDK@glColor4i@ DB 'glColor4i', 00H		; `string'
CONST	ENDS
;	COMDAT ??_C@_0L@LEEIIKCG@glColor4fv@
CONST	SEGMENT
??_C@_0L@LEEIIKCG@glColor4fv@ DB 'glColor4fv', 00H	; `string'
CONST	ENDS
;	COMDAT ??_C@_09PKFCMFPF@glColor4f@
CONST	SEGMENT
??_C@_09PKFCMFPF@glColor4f@ DB 'glColor4f', 00H		; `string'
CONST	ENDS
;	COMDAT ??_C@_0L@LHMMFOEI@glColor4dv@
CONST	SEGMENT
??_C@_0L@LHMMFOEI@glColor4dv@ DB 'glColor4dv', 00H	; `string'
CONST	ENDS
;	COMDAT ??_C@_09MIGEKHHH@glColor4d@
CONST	SEGMENT
??_C@_09MIGEKHHH@glColor4d@ DB 'glColor4d', 00H		; `string'
CONST	ENDS
;	COMDAT ??_C@_0L@LDEBCCPK@glColor4bv@
CONST	SEGMENT
??_C@_0L@LDEBCCPK@glColor4bv@ DB 'glColor4bv', 00H	; `string'
CONST	ENDS
;	COMDAT ??_C@_09JODOAAPB@glColor4b@
CONST	SEGMENT
??_C@_09JODOAAPB@glColor4b@ DB 'glColor4b', 00H		; `string'
CONST	ENDS
;	COMDAT ??_C@_0M@FNJLPFIN@glColor3usv@
CONST	SEGMENT
??_C@_0M@FNJLPFIN@glColor3usv@ DB 'glColor3usv', 00H	; `string'
CONST	ENDS
;	COMDAT ??_C@_0L@EKIIFLPD@glColor3us@
CONST	SEGMENT
??_C@_0L@EKIIFLPD@glColor3us@ DB 'glColor3us', 00H	; `string'
CONST	ENDS
;	COMDAT ??_C@_0M@EMCKNDCL@glColor3uiv@
CONST	SEGMENT
??_C@_0M@EMCKNDCL@glColor3uiv@ DB 'glColor3uiv', 00H	; `string'
CONST	ENDS
;	COMDAT ??_C@_0L@PKKFKBCI@glColor3ui@
CONST	SEGMENT
??_C@_0L@PKKFKBCI@glColor3ui@ DB 'glColor3ui', 00H	; `string'
CONST	ENDS
;	COMDAT ??_C@_0M@EAHPDMMK@glColor3ubv@
CONST	SEGMENT
??_C@_0M@EAHPDMMK@glColor3ubv@ DB 'glColor3ubv', 00H	; `string'
CONST	ENDS
;	COMDAT ??_C@_0L@BJFBHIOD@glColor3ub@
CONST	SEGMENT
??_C@_0L@BJFBHIOD@glColor3ub@ DB 'glColor3ub', 00H	; `string'
CONST	ENDS
;	COMDAT ??_C@_0L@DDHCNDAE@glColor3sv@
CONST	SEGMENT
??_C@_0L@DDHCNDAE@glColor3sv@ DB 'glColor3sv', 00H	; `string'
CONST	ENDS
;	COMDAT ??_C@_09MIKIDFGE@glColor3s@
CONST	SEGMENT
??_C@_09MIKIDFGE@glColor3s@ DB 'glColor3s', 00H		; `string'
CONST	ENDS
;	COMDAT ??_C@_0L@CCMDPFKC@glColor3iv@
CONST	SEGMENT
??_C@_0L@CCMDPFKC@glColor3iv@ DB 'glColor3iv', 00H	; `string'
CONST	ENDS
;	COMDAT ??_C@_09HIIFMPLP@glColor3i@
CONST	SEGMENT
??_C@_09HIIFMPLP@glColor3i@ DB 'glColor3i', 00H		; `string'
CONST	ENDS
;	COMDAT ??_C@_0L@CJJPLCJP@glColor3fv@
CONST	SEGMENT
??_C@_0L@CJJPLCJP@glColor3fv@ DB 'glColor3fv', 00H	; `string'
CONST	ENDS
;	COMDAT ??_C@_09PPBNNDHA@glColor3f@
CONST	SEGMENT
??_C@_09PPBNNDHA@glColor3f@ DB 'glColor3f', 00H		; `string'
CONST	ENDS
;	COMDAT ??_C@_0L@CKBLGGPB@glColor3dv@
CONST	SEGMENT
??_C@_0L@CKBLGGPB@glColor3dv@ DB 'glColor3dv', 00H	; `string'
CONST	ENDS
;	COMDAT ??_C@_09MNCLLBPC@glColor3d@
CONST	SEGMENT
??_C@_09MNCLLBPC@glColor3d@ DB 'glColor3d', 00H		; `string'
CONST	ENDS
;	COMDAT ??_C@_0L@COJGBKED@glColor3bv@
CONST	SEGMENT
??_C@_0L@COJGBKED@glColor3bv@ DB 'glColor3bv', 00H	; `string'
CONST	ENDS
;	COMDAT ??_C@_09JLHBBGHE@glColor3b@
CONST	SEGMENT
??_C@_09JLHBBGHE@glColor3b@ DB 'glColor3b', 00H		; `string'
CONST	ENDS
;	COMDAT ??_C@_08PJOLDJDK@glBitmap@
CONST	SEGMENT
??_C@_08PJOLDJDK@glBitmap@ DB 'glBitmap', 00H		; `string'
CONST	ENDS
;	COMDAT ??_C@_07FCOIFMD@glBegin@
CONST	SEGMENT
??_C@_07FCOIFMD@glBegin@ DB 'glBegin', 00H		; `string'
CONST	ENDS
;	COMDAT ??_C@_0L@HDOJDFBA@glListBase@
CONST	SEGMENT
??_C@_0L@HDOJDFBA@glListBase@ DB 'glListBase', 00H	; `string'
CONST	ENDS
;	COMDAT ??_C@_0L@BNOFOEBP@glGenLists@
CONST	SEGMENT
??_C@_0L@BNOFOEBP@glGenLists@ DB 'glGenLists', 00H	; `string'
CONST	ENDS
;	COMDAT ??_C@_0O@KPJIJAFM@glDeleteLists@
CONST	SEGMENT
??_C@_0O@KPJIJAFM@glDeleteLists@ DB 'glDeleteLists', 00H ; `string'
CONST	ENDS
;	COMDAT ??_C@_0M@LFDBDICJ@glCallLists@
CONST	SEGMENT
??_C@_0M@LFDBDICJ@glCallLists@ DB 'glCallLists', 00H	; `string'
CONST	ENDS
;	COMDAT ??_C@_0L@CIPLDIDL@glCallList@
CONST	SEGMENT
??_C@_0L@CIPLDIDL@glCallList@ DB 'glCallList', 00H	; `string'
CONST	ENDS
;	COMDAT ??_C@_09HKEBCLHH@glEndList@
CONST	SEGMENT
??_C@_09HKEBCLHH@glEndList@ DB 'glEndList', 00H		; `string'
CONST	ENDS
;	COMDAT ??_C@_09KAGOBDOO@glNewList@
CONST	SEGMENT
??_C@_09KAGOBDOO@glNewList@ DB 'glNewList', 00H		; `string'
CONST	ENDS
;	COMDAT ??_C@_0L@KBLIPDFH@glViewport@
CONST	SEGMENT
??_C@_0L@KBLIPDFH@glViewport@ DB 'glViewport', 00H	; `string'
CONST	ENDS
;	COMDAT ??_C@_0N@PEBDIKOA@glDepthRange@
CONST	SEGMENT
??_C@_0N@PEBDIKOA@glDepthRange@ DB 'glDepthRange', 00H	; `string'
CONST	ENDS
;	COMDAT ??_C@_0M@INHMIHKC@glIsEnabled@
CONST	SEGMENT
??_C@_0M@INHMIHKC@glIsEnabled@ DB 'glIsEnabled', 00H	; `string'
CONST	ENDS
;	COMDAT ??_C@_0BJ@GLJHCPGI@glGetTexLevelParameteriv@
CONST	SEGMENT
??_C@_0BJ@GLJHCPGI@glGetTexLevelParameteriv@ DB 'glGetTexLevelParameteriv'
	DB	00H						; `string'
CONST	ENDS
;	COMDAT ??_C@_0BJ@GAMLGIFF@glGetTexLevelParameterfv@
CONST	SEGMENT
??_C@_0BJ@GAMLGIFF@glGetTexLevelParameterfv@ DB 'glGetTexLevelParameterfv'
	DB	00H						; `string'
CONST	ENDS
;	COMDAT ??_C@_0BE@DGCNLNPP@glGetTexParameteriv@
CONST	SEGMENT
??_C@_0BE@DGCNLNPP@glGetTexParameteriv@ DB 'glGetTexParameteriv', 00H ; `string'
CONST	ENDS
;	COMDAT ??_C@_0BE@DNHBPKMC@glGetTexParameterfv@
CONST	SEGMENT
??_C@_0BE@DNHBPKMC@glGetTexParameterfv@ DB 'glGetTexParameterfv', 00H ; `string'
CONST	ENDS
;	COMDAT ??_C@_0O@DOIIJLAD@glGetTexImage@
CONST	SEGMENT
??_C@_0O@DOIIJLAD@glGetTexImage@ DB 'glGetTexImage', 00H ; `string'
CONST	ENDS
;	COMDAT ??_C@_0M@OPOBFDCB@glGetString@
CONST	SEGMENT
??_C@_0M@OPOBFDCB@glGetString@ DB 'glGetString', 00H	; `string'
CONST	ENDS
;	COMDAT ??_C@_0O@DHHDCCLF@glGetIntegerv@
CONST	SEGMENT
??_C@_0O@DHHDCCLF@glGetIntegerv@ DB 'glGetIntegerv', 00H ; `string'
CONST	ENDS
;	COMDAT ??_C@_0M@CKCOBONE@glGetFloatv@
CONST	SEGMENT
??_C@_0M@CKCOBONE@glGetFloatv@ DB 'glGetFloatv', 00H	; `string'
CONST	ENDS
;	COMDAT ??_C@_0L@FPKAMKHB@glGetError@
CONST	SEGMENT
??_C@_0L@FPKAMKHB@glGetError@ DB 'glGetError', 00H	; `string'
CONST	ENDS
;	COMDAT ??_C@_0N@OFBMMCDH@glGetDoublev@
CONST	SEGMENT
??_C@_0N@OFBMMCDH@glGetDoublev@ DB 'glGetDoublev', 00H	; `string'
CONST	ENDS
;	COMDAT ??_C@_0O@NLMELLCJ@glGetBooleanv@
CONST	SEGMENT
??_C@_0O@NLMELLCJ@glGetBooleanv@ DB 'glGetBooleanv', 00H ; `string'
CONST	ENDS
;	COMDAT ??_C@_0N@CKFNNHOO@glReadPixels@
CONST	SEGMENT
??_C@_0N@CKFNNHOO@glReadPixels@ DB 'glReadPixels', 00H	; `string'
CONST	ENDS
;	COMDAT ??_C@_0N@HFKHBECK@glReadBuffer@
CONST	SEGMENT
??_C@_0N@HFKHBECK@glReadBuffer@ DB 'glReadBuffer', 00H	; `string'
CONST	ENDS
;	COMDAT ??_C@_0O@JCCIGLOF@glPixelStorei@
CONST	SEGMENT
??_C@_0O@JCCIGLOF@glPixelStorei@ DB 'glPixelStorei', 00H ; `string'
CONST	ENDS
;	COMDAT ??_C@_0O@BFLAHHCK@glPixelStoref@
CONST	SEGMENT
??_C@_0O@BFLAHHCK@glPixelStoref@ DB 'glPixelStoref', 00H ; `string'
CONST	ENDS
;	COMDAT ??_C@_0M@NEJABAEP@glDepthFunc@
CONST	SEGMENT
??_C@_0M@NEJABAEP@glDepthFunc@ DB 'glDepthFunc', 00H	; `string'
CONST	ENDS
;	COMDAT ??_C@_0M@BILBNGF@glStencilOp@
CONST	SEGMENT
??_C@_0M@BILBNGF@glStencilOp@ DB 'glStencilOp', 00H	; `string'
CONST	ENDS
;	COMDAT ??_C@_0O@ENNLLOLN@glStencilFunc@
CONST	SEGMENT
??_C@_0O@ENNLLOLN@glStencilFunc@ DB 'glStencilFunc', 00H ; `string'
CONST	ENDS
;	COMDAT ??_C@_09GKGMNAKG@glLogicOp@
CONST	SEGMENT
??_C@_09GKGMNAKG@glLogicOp@ DB 'glLogicOp', 00H		; `string'
CONST	ENDS
;	COMDAT ??_C@_0M@PFBKOKOH@glBlendFunc@
CONST	SEGMENT
??_C@_0M@PFBKOKOH@glBlendFunc@ DB 'glBlendFunc', 00H	; `string'
CONST	ENDS
;	COMDAT ??_C@_07COFELLJA@glFlush@
CONST	SEGMENT
??_C@_07COFELLJA@glFlush@ DB 'glFlush', 00H		; `string'
CONST	ENDS
;	COMDAT ??_C@_08DFCPOKBK@glFinish@
CONST	SEGMENT
??_C@_08DFCPOKBK@glFinish@ DB 'glFinish', 00H		; `string'
CONST	ENDS
;	COMDAT ??_C@_08OOEHEKOP@glEnable@
CONST	SEGMENT
??_C@_08OOEHEKOP@glEnable@ DB 'glEnable', 00H		; `string'
CONST	ENDS
;	COMDAT ??_C@_09MHGMIMKN@glDisable@
CONST	SEGMENT
??_C@_09MHGMIMKN@glDisable@ DB 'glDisable', 00H		; `string'
CONST	ENDS
;	COMDAT ??_C@_0M@KABMFLLN@glDepthMask@
CONST	SEGMENT
??_C@_0M@KABMFLLN@glDepthMask@ DB 'glDepthMask', 00H	; `string'
CONST	ENDS
;	COMDAT ??_C@_0M@DLGOAHPH@glColorMask@
CONST	SEGMENT
??_C@_0M@DLGOAHPH@glColorMask@ DB 'glColorMask', 00H	; `string'
CONST	ENDS
;	COMDAT ??_C@_0O@DJFHPFEP@glStencilMask@
CONST	SEGMENT
??_C@_0O@DJFHPFEP@glStencilMask@ DB 'glStencilMask', 00H ; `string'
CONST	ENDS
;	COMDAT ??_C@_0N@LJIELNG@glClearDepth@
CONST	SEGMENT
??_C@_0N@LJIELNG@glClearDepth@ DB 'glClearDepth', 00H	; `string'
CONST	ENDS
;	COMDAT ??_C@_0P@KBLPBBFP@glClearStencil@
CONST	SEGMENT
??_C@_0P@KBLPBBFP@glClearStencil@ DB 'glClearStencil', 00H ; `string'
CONST	ENDS
;	COMDAT ??_C@_0N@OGLMDNKC@glClearColor@
CONST	SEGMENT
??_C@_0N@OGLMDNKC@glClearColor@ DB 'glClearColor', 00H	; `string'
CONST	ENDS
;	COMDAT ??_C@_07IBAPPAHJ@glClear@
CONST	SEGMENT
??_C@_07IBAPPAHJ@glClear@ DB 'glClear', 00H		; `string'
CONST	ENDS
;	COMDAT ??_C@_0N@EKCLGPL@glDrawBuffer@
CONST	SEGMENT
??_C@_0N@EKCLGPL@glDrawBuffer@ DB 'glDrawBuffer', 00H	; `string'
CONST	ENDS
;	COMDAT ??_C@_0N@JBIKHLCC@glTexImage2D@
CONST	SEGMENT
??_C@_0N@JBIKHLCC@glTexImage2D@ DB 'glTexImage2D', 00H	; `string'
CONST	ENDS
;	COMDAT ??_C@_0N@JDMMMFHL@glTexImage1D@
CONST	SEGMENT
??_C@_0N@JDMMMFHL@glTexImage1D@ DB 'glTexImage1D', 00H	; `string'
CONST	ENDS
;	COMDAT ??_C@_0BB@KPLJEAAI@glTexParameteriv@
CONST	SEGMENT
??_C@_0BB@KPLJEAAI@glTexParameteriv@ DB 'glTexParameteriv', 00H ; `string'
CONST	ENDS
;	COMDAT ??_C@_0BA@KDNJAKA@glTexParameteri@
CONST	SEGMENT
??_C@_0BA@KDNJAKA@glTexParameteri@ DB 'glTexParameteri', 00H ; `string'
CONST	ENDS
;	COMDAT ??_C@_0BB@KEOFAHDF@glTexParameterfv@
CONST	SEGMENT
??_C@_0BB@KEOFAHDF@glTexParameterfv@ DB 'glTexParameterfv', 00H ; `string'
CONST	ENDS
;	COMDAT ??_C@_0BA@INKFIMGP@glTexParameterf@
CONST	SEGMENT
??_C@_0BA@INKFIMGP@glTexParameterf@ DB 'glTexParameterf', 00H ; `string'
CONST	ENDS
;	COMDAT ??_C@_09ECGPAEPL@glScissor@
CONST	SEGMENT
??_C@_09ECGPAEPL@glScissor@ DB 'glScissor', 00H		; `string'
CONST	ENDS
;	COMDAT ??_C@_0O@DKMNBFMB@glPolygonMode@
CONST	SEGMENT
??_C@_0O@DKMNBFMB@glPolygonMode@ DB 'glPolygonMode', 00H ; `string'
CONST	ENDS
;	COMDAT ??_C@_0M@EEAPMMNM@glPointSize@
CONST	SEGMENT
??_C@_0M@EEAPMMNM@glPointSize@ DB 'glPointSize', 00H	; `string'
CONST	ENDS
;	COMDAT ??_C@_0M@CFLGNFPG@glLineWidth@
CONST	SEGMENT
??_C@_0M@CFLGNFPG@glLineWidth@ DB 'glLineWidth', 00H	; `string'
CONST	ENDS
;	COMDAT ??_C@_06HEADGMBC@glHint@
CONST	SEGMENT
??_C@_06HEADGMBC@glHint@ DB 'glHint', 00H		; `string'
CONST	ENDS
;	COMDAT ??_C@_0M@ILBMDJDA@glFrontFace@
CONST	SEGMENT
??_C@_0M@ILBMDJDA@glFrontFace@ DB 'glFrontFace', 00H	; `string'
CONST	ENDS
;	COMDAT ??_C@_0L@BAPBLHME@glCullFace@
CONST	SEGMENT
??_C@_0L@BAPBLHME@glCullFace@ DB 'glCullFace', 00H	; `string'
CONST	ENDS
;	COMDAT ??_C@_0BC@FFKMKEGM@wglGetProcAddress@
CONST	SEGMENT
??_C@_0BC@FFKMKEGM@wglGetProcAddress@ DB 'wglGetProcAddress', 00H ; `string'
CONST	ENDS
;	COMDAT ??_C@_1BK@LCODAJLO@?$AAo?$AAp?$AAe?$AAn?$AAg?$AAl?$AA3?$AA2?$AA?4?$AAd?$AAl?$AAl@
CONST	SEGMENT
??_C@_1BK@LCODAJLO@?$AAo?$AAp?$AAe?$AAn?$AAg?$AAl?$AA3?$AA2?$AA?4?$AAd?$AAl?$AAl@ DB 'o'
	DB	00H, 'p', 00H, 'e', 00H, 'n', 00H, 'g', 00H, 'l', 00H, '3', 00H
	DB	'2', 00H, '.', 00H, 'd', 00H, 'l', 00H, 'l', 00H, 00H, 00H ; `string'
CONST	ENDS
; Function compile flags: /Odt
;	COMDAT __JustMyCode_Default
_TEXT	SEGMENT
__JustMyCode_Default PROC				; COMDAT
  00000	55		 push	 ebp
  00001	8b ec		 mov	 ebp, esp
  00003	5d		 pop	 ebp
  00004	c3		 ret	 0
__JustMyCode_Default ENDP
_TEXT	ENDS
; Function compile flags: /Odtp /RTCsu /ZI
; File C:\Users\Light\source\repos\Spacemonster\Spacemonster-code\glad\glad.c
;	COMDAT _find_coreGL
_TEXT	SEGMENT
tv166 = -284						; size = 4
tv162 = -284						; size = 4
tv158 = -284						; size = 4
tv154 = -284						; size = 4
tv150 = -284						; size = 4
tv146 = -284						; size = 4
tv142 = -284						; size = 4
tv138 = -284						; size = 4
tv134 = -284						; size = 4
tv130 = -284						; size = 4
tv94 = -284						; size = 4
tv90 = -284						; size = 4
_length$1 = -84						; size = 4
_prefixes$ = -72					; size = 16
_version$ = -48						; size = 4
_minor$ = -36						; size = 4
_major$ = -24						; size = 4
_i$ = -12						; size = 4
__$ArrayPad$ = -4					; size = 4
_find_coreGL PROC					; COMDAT

; 1764 : static void find_coreGL(void) {

  00000	55		 push	 ebp
  00001	8b ec		 mov	 ebp, esp
  00003	81 ec 1c 01 00
	00		 sub	 esp, 284		; 0000011cH
  00009	53		 push	 ebx
  0000a	56		 push	 esi
  0000b	57		 push	 edi
  0000c	8d bd e4 fe ff
	ff		 lea	 edi, DWORD PTR [ebp-284]
  00012	b9 47 00 00 00	 mov	 ecx, 71			; 00000047H
  00017	b8 cc cc cc cc	 mov	 eax, -858993460		; ccccccccH
  0001c	f3 ab		 rep stosd
  0001e	a1 00 00 00 00	 mov	 eax, DWORD PTR ___security_cookie
  00023	33 c5		 xor	 eax, ebp
  00025	89 45 fc	 mov	 DWORD PTR __$ArrayPad$[ebp], eax
  00028	b9 00 00 00 00	 mov	 ecx, OFFSET __550F0BDD_glad@c
  0002d	e8 00 00 00 00	 call	 @__CheckForDebuggerJustMyCode@4

; 1765 : 
; 1766 :     /* Thank you @elmindreda
; 1767 :      * https://github.com/elmindreda/greg/blob/master/templates/greg.c.in#L176
; 1768 :      * https://github.com/glfw/glfw/blob/master/src/context.c#L36
; 1769 :      */
; 1770 :     int i, major, minor;
; 1771 : 
; 1772 :     const char* version;
; 1773 :     const char* prefixes[] = {

  00032	c7 45 b8 00 00
	00 00		 mov	 DWORD PTR _prefixes$[ebp], OFFSET ??_C@_0O@ENGHJHNB@OpenGL?5ES?9CM?5@
  00039	c7 45 bc 00 00
	00 00		 mov	 DWORD PTR _prefixes$[ebp+4], OFFSET ??_C@_0O@EMKFPNOG@OpenGL?5ES?9CL?5@
  00040	c7 45 c0 00 00
	00 00		 mov	 DWORD PTR _prefixes$[ebp+8], OFFSET ??_C@_0L@JLFHOCGA@OpenGL?5ES?5@
  00047	c7 45 c4 00 00
	00 00		 mov	 DWORD PTR _prefixes$[ebp+12], 0

; 1774 :         "OpenGL ES-CM ",
; 1775 :         "OpenGL ES-CL ",
; 1776 :         "OpenGL ES ",
; 1777 :         NULL
; 1778 :     };
; 1779 : 
; 1780 :     version = (const char*) glGetString(GL_VERSION);

  0004e	8b f4		 mov	 esi, esp
  00050	68 02 1f 00 00	 push	 7938			; 00001f02H
  00055	ff 15 00 00 00
	00		 call	 DWORD PTR _glad_glGetString
  0005b	3b f4		 cmp	 esi, esp
  0005d	e8 00 00 00 00	 call	 __RTC_CheckEsp
  00062	89 45 d0	 mov	 DWORD PTR _version$[ebp], eax

; 1781 :     if (!version) return;

  00065	83 7d d0 00	 cmp	 DWORD PTR _version$[ebp], 0
  00069	75 05		 jne	 SHORT $LN5@find_coreG
  0006b	e9 2e 03 00 00	 jmp	 $LN1@find_coreG
$LN5@find_coreG:

; 1782 : 
; 1783 :     for (i = 0;  prefixes[i];  i++) {

  00070	c7 45 f4 00 00
	00 00		 mov	 DWORD PTR _i$[ebp], 0
  00077	eb 09		 jmp	 SHORT $LN4@find_coreG
$LN2@find_coreG:
  00079	8b 45 f4	 mov	 eax, DWORD PTR _i$[ebp]
  0007c	83 c0 01	 add	 eax, 1
  0007f	89 45 f4	 mov	 DWORD PTR _i$[ebp], eax
$LN4@find_coreG:
  00082	8b 45 f4	 mov	 eax, DWORD PTR _i$[ebp]
  00085	83 7c 85 b8 00	 cmp	 DWORD PTR _prefixes$[ebp+eax*4], 0
  0008a	74 46		 je	 SHORT $LN3@find_coreG

; 1784 :         const size_t length = strlen(prefixes[i]);

  0008c	8b 45 f4	 mov	 eax, DWORD PTR _i$[ebp]
  0008f	8b 4c 85 b8	 mov	 ecx, DWORD PTR _prefixes$[ebp+eax*4]
  00093	51		 push	 ecx
  00094	e8 00 00 00 00	 call	 _strlen
  00099	83 c4 04	 add	 esp, 4
  0009c	89 45 ac	 mov	 DWORD PTR _length$1[ebp], eax

; 1785 :         if (strncmp(version, prefixes[i], length) == 0) {

  0009f	8b f4		 mov	 esi, esp
  000a1	8b 45 ac	 mov	 eax, DWORD PTR _length$1[ebp]
  000a4	50		 push	 eax
  000a5	8b 4d f4	 mov	 ecx, DWORD PTR _i$[ebp]
  000a8	8b 54 8d b8	 mov	 edx, DWORD PTR _prefixes$[ebp+ecx*4]
  000ac	52		 push	 edx
  000ad	8b 45 d0	 mov	 eax, DWORD PTR _version$[ebp]
  000b0	50		 push	 eax
  000b1	ff 15 00 00 00
	00		 call	 DWORD PTR __imp__strncmp
  000b7	83 c4 0c	 add	 esp, 12			; 0000000cH
  000ba	3b f4		 cmp	 esi, esp
  000bc	e8 00 00 00 00	 call	 __RTC_CheckEsp
  000c1	85 c0		 test	 eax, eax
  000c3	75 0b		 jne	 SHORT $LN6@find_coreG

; 1786 :             version += length;

  000c5	8b 45 d0	 mov	 eax, DWORD PTR _version$[ebp]
  000c8	03 45 ac	 add	 eax, DWORD PTR _length$1[ebp]
  000cb	89 45 d0	 mov	 DWORD PTR _version$[ebp], eax

; 1787 :             break;

  000ce	eb 02		 jmp	 SHORT $LN3@find_coreG
$LN6@find_coreG:

; 1788 :         }
; 1789 :     }

  000d0	eb a7		 jmp	 SHORT $LN2@find_coreG
$LN3@find_coreG:

; 1790 : 
; 1791 : /* PR #18 */
; 1792 : #ifdef _MSC_VER
; 1793 :     sscanf_s(version, "%d.%d", &major, &minor);

  000d2	8d 45 dc	 lea	 eax, DWORD PTR _minor$[ebp]
  000d5	50		 push	 eax
  000d6	8d 4d e8	 lea	 ecx, DWORD PTR _major$[ebp]
  000d9	51		 push	 ecx
  000da	68 00 00 00 00	 push	 OFFSET ??_C@_05KBEOJPB@?$CFd?4?$CFd@
  000df	8b 55 d0	 mov	 edx, DWORD PTR _version$[ebp]
  000e2	52		 push	 edx
  000e3	e8 00 00 00 00	 call	 _sscanf_s
  000e8	83 c4 10	 add	 esp, 16			; 00000010H

; 1794 : #else
; 1795 :     sscanf(version, "%d.%d", &major, &minor);
; 1796 : #endif
; 1797 : 
; 1798 :     GLVersion.major = major; GLVersion.minor = minor;

  000eb	8b 45 e8	 mov	 eax, DWORD PTR _major$[ebp]
  000ee	a3 00 00 00 00	 mov	 DWORD PTR _GLVersion, eax
  000f3	8b 45 dc	 mov	 eax, DWORD PTR _minor$[ebp]
  000f6	a3 04 00 00 00	 mov	 DWORD PTR _GLVersion+4, eax

; 1799 :     max_loaded_major = major; max_loaded_minor = minor;

  000fb	8b 45 e8	 mov	 eax, DWORD PTR _major$[ebp]
  000fe	a3 00 00 00 00	 mov	 DWORD PTR _max_loaded_major, eax
  00103	8b 45 dc	 mov	 eax, DWORD PTR _minor$[ebp]
  00106	a3 00 00 00 00	 mov	 DWORD PTR _max_loaded_minor, eax

; 1800 : 	GLAD_GL_VERSION_1_0 = (major == 1 && minor >= 0) || major > 1;

  0010b	83 7d e8 01	 cmp	 DWORD PTR _major$[ebp], 1
  0010f	75 06		 jne	 SHORT $LN10@find_coreG
  00111	83 7d dc 00	 cmp	 DWORD PTR _minor$[ebp], 0
  00115	7d 12		 jge	 SHORT $LN11@find_coreG
$LN10@find_coreG:
  00117	83 7d e8 01	 cmp	 DWORD PTR _major$[ebp], 1
  0011b	7f 0c		 jg	 SHORT $LN11@find_coreG
  0011d	c7 85 e4 fe ff
	ff 00 00 00 00	 mov	 DWORD PTR tv90[ebp], 0
  00127	eb 0a		 jmp	 SHORT $LN12@find_coreG
$LN11@find_coreG:
  00129	c7 85 e4 fe ff
	ff 01 00 00 00	 mov	 DWORD PTR tv90[ebp], 1
$LN12@find_coreG:
  00133	8b 85 e4 fe ff
	ff		 mov	 eax, DWORD PTR tv90[ebp]
  00139	a3 00 00 00 00	 mov	 DWORD PTR _GLAD_GL_VERSION_1_0, eax

; 1801 : 	GLAD_GL_VERSION_1_1 = (major == 1 && minor >= 1) || major > 1;

  0013e	83 7d e8 01	 cmp	 DWORD PTR _major$[ebp], 1
  00142	75 06		 jne	 SHORT $LN13@find_coreG
  00144	83 7d dc 01	 cmp	 DWORD PTR _minor$[ebp], 1
  00148	7d 12		 jge	 SHORT $LN14@find_coreG
$LN13@find_coreG:
  0014a	83 7d e8 01	 cmp	 DWORD PTR _major$[ebp], 1
  0014e	7f 0c		 jg	 SHORT $LN14@find_coreG
  00150	c7 85 e4 fe ff
	ff 00 00 00 00	 mov	 DWORD PTR tv94[ebp], 0
  0015a	eb 0a		 jmp	 SHORT $LN15@find_coreG
$LN14@find_coreG:
  0015c	c7 85 e4 fe ff
	ff 01 00 00 00	 mov	 DWORD PTR tv94[ebp], 1
$LN15@find_coreG:
  00166	8b 85 e4 fe ff
	ff		 mov	 eax, DWORD PTR tv94[ebp]
  0016c	a3 00 00 00 00	 mov	 DWORD PTR _GLAD_GL_VERSION_1_1, eax

; 1802 : 	GLAD_GL_VERSION_1_2 = (major == 1 && minor >= 2) || major > 1;

  00171	83 7d e8 01	 cmp	 DWORD PTR _major$[ebp], 1
  00175	75 06		 jne	 SHORT $LN16@find_coreG
  00177	83 7d dc 02	 cmp	 DWORD PTR _minor$[ebp], 2
  0017b	7d 12		 jge	 SHORT $LN17@find_coreG
$LN16@find_coreG:
  0017d	83 7d e8 01	 cmp	 DWORD PTR _major$[ebp], 1
  00181	7f 0c		 jg	 SHORT $LN17@find_coreG
  00183	c7 85 e4 fe ff
	ff 00 00 00 00	 mov	 DWORD PTR tv130[ebp], 0
  0018d	eb 0a		 jmp	 SHORT $LN18@find_coreG
$LN17@find_coreG:
  0018f	c7 85 e4 fe ff
	ff 01 00 00 00	 mov	 DWORD PTR tv130[ebp], 1
$LN18@find_coreG:
  00199	8b 85 e4 fe ff
	ff		 mov	 eax, DWORD PTR tv130[ebp]
  0019f	a3 00 00 00 00	 mov	 DWORD PTR _GLAD_GL_VERSION_1_2, eax

; 1803 : 	GLAD_GL_VERSION_1_3 = (major == 1 && minor >= 3) || major > 1;

  001a4	83 7d e8 01	 cmp	 DWORD PTR _major$[ebp], 1
  001a8	75 06		 jne	 SHORT $LN19@find_coreG
  001aa	83 7d dc 03	 cmp	 DWORD PTR _minor$[ebp], 3
  001ae	7d 12		 jge	 SHORT $LN20@find_coreG
$LN19@find_coreG:
  001b0	83 7d e8 01	 cmp	 DWORD PTR _major$[ebp], 1
  001b4	7f 0c		 jg	 SHORT $LN20@find_coreG
  001b6	c7 85 e4 fe ff
	ff 00 00 00 00	 mov	 DWORD PTR tv134[ebp], 0
  001c0	eb 0a		 jmp	 SHORT $LN21@find_coreG
$LN20@find_coreG:
  001c2	c7 85 e4 fe ff
	ff 01 00 00 00	 mov	 DWORD PTR tv134[ebp], 1
$LN21@find_coreG:
  001cc	8b 85 e4 fe ff
	ff		 mov	 eax, DWORD PTR tv134[ebp]
  001d2	a3 00 00 00 00	 mov	 DWORD PTR _GLAD_GL_VERSION_1_3, eax

; 1804 : 	GLAD_GL_VERSION_1_4 = (major == 1 && minor >= 4) || major > 1;

  001d7	83 7d e8 01	 cmp	 DWORD PTR _major$[ebp], 1
  001db	75 06		 jne	 SHORT $LN22@find_coreG
  001dd	83 7d dc 04	 cmp	 DWORD PTR _minor$[ebp], 4
  001e1	7d 12		 jge	 SHORT $LN23@find_coreG
$LN22@find_coreG:
  001e3	83 7d e8 01	 cmp	 DWORD PTR _major$[ebp], 1
  001e7	7f 0c		 jg	 SHORT $LN23@find_coreG
  001e9	c7 85 e4 fe ff
	ff 00 00 00 00	 mov	 DWORD PTR tv138[ebp], 0
  001f3	eb 0a		 jmp	 SHORT $LN24@find_coreG
$LN23@find_coreG:
  001f5	c7 85 e4 fe ff
	ff 01 00 00 00	 mov	 DWORD PTR tv138[ebp], 1
$LN24@find_coreG:
  001ff	8b 85 e4 fe ff
	ff		 mov	 eax, DWORD PTR tv138[ebp]
  00205	a3 00 00 00 00	 mov	 DWORD PTR _GLAD_GL_VERSION_1_4, eax

; 1805 : 	GLAD_GL_VERSION_1_5 = (major == 1 && minor >= 5) || major > 1;

  0020a	83 7d e8 01	 cmp	 DWORD PTR _major$[ebp], 1
  0020e	75 06		 jne	 SHORT $LN25@find_coreG
  00210	83 7d dc 05	 cmp	 DWORD PTR _minor$[ebp], 5
  00214	7d 12		 jge	 SHORT $LN26@find_coreG
$LN25@find_coreG:
  00216	83 7d e8 01	 cmp	 DWORD PTR _major$[ebp], 1
  0021a	7f 0c		 jg	 SHORT $LN26@find_coreG
  0021c	c7 85 e4 fe ff
	ff 00 00 00 00	 mov	 DWORD PTR tv142[ebp], 0
  00226	eb 0a		 jmp	 SHORT $LN27@find_coreG
$LN26@find_coreG:
  00228	c7 85 e4 fe ff
	ff 01 00 00 00	 mov	 DWORD PTR tv142[ebp], 1
$LN27@find_coreG:
  00232	8b 85 e4 fe ff
	ff		 mov	 eax, DWORD PTR tv142[ebp]
  00238	a3 00 00 00 00	 mov	 DWORD PTR _GLAD_GL_VERSION_1_5, eax

; 1806 : 	GLAD_GL_VERSION_2_0 = (major == 2 && minor >= 0) || major > 2;

  0023d	83 7d e8 02	 cmp	 DWORD PTR _major$[ebp], 2
  00241	75 06		 jne	 SHORT $LN28@find_coreG
  00243	83 7d dc 00	 cmp	 DWORD PTR _minor$[ebp], 0
  00247	7d 12		 jge	 SHORT $LN29@find_coreG
$LN28@find_coreG:
  00249	83 7d e8 02	 cmp	 DWORD PTR _major$[ebp], 2
  0024d	7f 0c		 jg	 SHORT $LN29@find_coreG
  0024f	c7 85 e4 fe ff
	ff 00 00 00 00	 mov	 DWORD PTR tv146[ebp], 0
  00259	eb 0a		 jmp	 SHORT $LN30@find_coreG
$LN29@find_coreG:
  0025b	c7 85 e4 fe ff
	ff 01 00 00 00	 mov	 DWORD PTR tv146[ebp], 1
$LN30@find_coreG:
  00265	8b 85 e4 fe ff
	ff		 mov	 eax, DWORD PTR tv146[ebp]
  0026b	a3 00 00 00 00	 mov	 DWORD PTR _GLAD_GL_VERSION_2_0, eax

; 1807 : 	GLAD_GL_VERSION_2_1 = (major == 2 && minor >= 1) || major > 2;

  00270	83 7d e8 02	 cmp	 DWORD PTR _major$[ebp], 2
  00274	75 06		 jne	 SHORT $LN31@find_coreG
  00276	83 7d dc 01	 cmp	 DWORD PTR _minor$[ebp], 1
  0027a	7d 12		 jge	 SHORT $LN32@find_coreG
$LN31@find_coreG:
  0027c	83 7d e8 02	 cmp	 DWORD PTR _major$[ebp], 2
  00280	7f 0c		 jg	 SHORT $LN32@find_coreG
  00282	c7 85 e4 fe ff
	ff 00 00 00 00	 mov	 DWORD PTR tv150[ebp], 0
  0028c	eb 0a		 jmp	 SHORT $LN33@find_coreG
$LN32@find_coreG:
  0028e	c7 85 e4 fe ff
	ff 01 00 00 00	 mov	 DWORD PTR tv150[ebp], 1
$LN33@find_coreG:
  00298	8b 85 e4 fe ff
	ff		 mov	 eax, DWORD PTR tv150[ebp]
  0029e	a3 00 00 00 00	 mov	 DWORD PTR _GLAD_GL_VERSION_2_1, eax

; 1808 : 	GLAD_GL_VERSION_3_0 = (major == 3 && minor >= 0) || major > 3;

  002a3	83 7d e8 03	 cmp	 DWORD PTR _major$[ebp], 3
  002a7	75 06		 jne	 SHORT $LN34@find_coreG
  002a9	83 7d dc 00	 cmp	 DWORD PTR _minor$[ebp], 0
  002ad	7d 12		 jge	 SHORT $LN35@find_coreG
$LN34@find_coreG:
  002af	83 7d e8 03	 cmp	 DWORD PTR _major$[ebp], 3
  002b3	7f 0c		 jg	 SHORT $LN35@find_coreG
  002b5	c7 85 e4 fe ff
	ff 00 00 00 00	 mov	 DWORD PTR tv154[ebp], 0
  002bf	eb 0a		 jmp	 SHORT $LN36@find_coreG
$LN35@find_coreG:
  002c1	c7 85 e4 fe ff
	ff 01 00 00 00	 mov	 DWORD PTR tv154[ebp], 1
$LN36@find_coreG:
  002cb	8b 85 e4 fe ff
	ff		 mov	 eax, DWORD PTR tv154[ebp]
  002d1	a3 00 00 00 00	 mov	 DWORD PTR _GLAD_GL_VERSION_3_0, eax

; 1809 : 	GLAD_GL_VERSION_3_1 = (major == 3 && minor >= 1) || major > 3;

  002d6	83 7d e8 03	 cmp	 DWORD PTR _major$[ebp], 3
  002da	75 06		 jne	 SHORT $LN37@find_coreG
  002dc	83 7d dc 01	 cmp	 DWORD PTR _minor$[ebp], 1
  002e0	7d 12		 jge	 SHORT $LN38@find_coreG
$LN37@find_coreG:
  002e2	83 7d e8 03	 cmp	 DWORD PTR _major$[ebp], 3
  002e6	7f 0c		 jg	 SHORT $LN38@find_coreG
  002e8	c7 85 e4 fe ff
	ff 00 00 00 00	 mov	 DWORD PTR tv158[ebp], 0
  002f2	eb 0a		 jmp	 SHORT $LN39@find_coreG
$LN38@find_coreG:
  002f4	c7 85 e4 fe ff
	ff 01 00 00 00	 mov	 DWORD PTR tv158[ebp], 1
$LN39@find_coreG:
  002fe	8b 85 e4 fe ff
	ff		 mov	 eax, DWORD PTR tv158[ebp]
  00304	a3 00 00 00 00	 mov	 DWORD PTR _GLAD_GL_VERSION_3_1, eax

; 1810 : 	GLAD_GL_VERSION_3_2 = (major == 3 && minor >= 2) || major > 3;

  00309	83 7d e8 03	 cmp	 DWORD PTR _major$[ebp], 3
  0030d	75 06		 jne	 SHORT $LN40@find_coreG
  0030f	83 7d dc 02	 cmp	 DWORD PTR _minor$[ebp], 2
  00313	7d 12		 jge	 SHORT $LN41@find_coreG
$LN40@find_coreG:
  00315	83 7d e8 03	 cmp	 DWORD PTR _major$[ebp], 3
  00319	7f 0c		 jg	 SHORT $LN41@find_coreG
  0031b	c7 85 e4 fe ff
	ff 00 00 00 00	 mov	 DWORD PTR tv162[ebp], 0
  00325	eb 0a		 jmp	 SHORT $LN42@find_coreG
$LN41@find_coreG:
  00327	c7 85 e4 fe ff
	ff 01 00 00 00	 mov	 DWORD PTR tv162[ebp], 1
$LN42@find_coreG:
  00331	8b 85 e4 fe ff
	ff		 mov	 eax, DWORD PTR tv162[ebp]
  00337	a3 00 00 00 00	 mov	 DWORD PTR _GLAD_GL_VERSION_3_2, eax

; 1811 : 	GLAD_GL_VERSION_3_3 = (major == 3 && minor >= 3) || major > 3;

  0033c	83 7d e8 03	 cmp	 DWORD PTR _major$[ebp], 3
  00340	75 06		 jne	 SHORT $LN43@find_coreG
  00342	83 7d dc 03	 cmp	 DWORD PTR _minor$[ebp], 3
  00346	7d 12		 jge	 SHORT $LN44@find_coreG
$LN43@find_coreG:
  00348	83 7d e8 03	 cmp	 DWORD PTR _major$[ebp], 3
  0034c	7f 0c		 jg	 SHORT $LN44@find_coreG
  0034e	c7 85 e4 fe ff
	ff 00 00 00 00	 mov	 DWORD PTR tv166[ebp], 0
  00358	eb 0a		 jmp	 SHORT $LN45@find_coreG
$LN44@find_coreG:
  0035a	c7 85 e4 fe ff
	ff 01 00 00 00	 mov	 DWORD PTR tv166[ebp], 1
$LN45@find_coreG:
  00364	8b 85 e4 fe ff
	ff		 mov	 eax, DWORD PTR tv166[ebp]
  0036a	a3 00 00 00 00	 mov	 DWORD PTR _GLAD_GL_VERSION_3_3, eax

; 1812 : 	if (GLVersion.major > 3 || (GLVersion.major >= 3 && GLVersion.minor >= 3)) {

  0036f	83 3d 00 00 00
	00 03		 cmp	 DWORD PTR _GLVersion, 3
  00376	7f 12		 jg	 SHORT $LN8@find_coreG
  00378	83 3d 00 00 00
	00 03		 cmp	 DWORD PTR _GLVersion, 3
  0037f	7c 1d		 jl	 SHORT $LN1@find_coreG
  00381	83 3d 04 00 00
	00 03		 cmp	 DWORD PTR _GLVersion+4, 3
  00388	7c 14		 jl	 SHORT $LN1@find_coreG
$LN8@find_coreG:

; 1813 : 		max_loaded_major = 3;

  0038a	c7 05 00 00 00
	00 03 00 00 00	 mov	 DWORD PTR _max_loaded_major, 3

; 1814 : 		max_loaded_minor = 3;

  00394	c7 05 00 00 00
	00 03 00 00 00	 mov	 DWORD PTR _max_loaded_minor, 3
$LN1@find_coreG:

; 1815 : 	}
; 1816 : }

  0039e	52		 push	 edx
  0039f	8b cd		 mov	 ecx, ebp
  003a1	50		 push	 eax
  003a2	8d 15 00 00 00
	00		 lea	 edx, DWORD PTR $LN50@find_coreG
  003a8	e8 00 00 00 00	 call	 @_RTC_CheckStackVars@8
  003ad	58		 pop	 eax
  003ae	5a		 pop	 edx
  003af	5f		 pop	 edi
  003b0	5e		 pop	 esi
  003b1	5b		 pop	 ebx
  003b2	8b 4d fc	 mov	 ecx, DWORD PTR __$ArrayPad$[ebp]
  003b5	33 cd		 xor	 ecx, ebp
  003b7	e8 00 00 00 00	 call	 @__security_check_cookie@4
  003bc	81 c4 1c 01 00
	00		 add	 esp, 284		; 0000011cH
  003c2	3b ec		 cmp	 ebp, esp
  003c4	e8 00 00 00 00	 call	 __RTC_CheckEsp
  003c9	8b e5		 mov	 esp, ebp
  003cb	5d		 pop	 ebp
  003cc	c3		 ret	 0
  003cd	0f 1f 00	 npad	 3
$LN50@find_coreG:
  003d0	03 00 00 00	 DD	 3
  003d4	00 00 00 00	 DD	 $LN49@find_coreG
$LN49@find_coreG:
  003d8	e8 ff ff ff	 DD	 -24			; ffffffe8H
  003dc	04 00 00 00	 DD	 4
  003e0	00 00 00 00	 DD	 $LN46@find_coreG
  003e4	dc ff ff ff	 DD	 -36			; ffffffdcH
  003e8	04 00 00 00	 DD	 4
  003ec	00 00 00 00	 DD	 $LN47@find_coreG
  003f0	b8 ff ff ff	 DD	 -72			; ffffffb8H
  003f4	10 00 00 00	 DD	 16			; 00000010H
  003f8	00 00 00 00	 DD	 $LN48@find_coreG
$LN48@find_coreG:
  003fc	70		 DB	 112			; 00000070H
  003fd	72		 DB	 114			; 00000072H
  003fe	65		 DB	 101			; 00000065H
  003ff	66		 DB	 102			; 00000066H
  00400	69		 DB	 105			; 00000069H
  00401	78		 DB	 120			; 00000078H
  00402	65		 DB	 101			; 00000065H
  00403	73		 DB	 115			; 00000073H
  00404	00		 DB	 0
$LN47@find_coreG:
  00405	6d		 DB	 109			; 0000006dH
  00406	69		 DB	 105			; 00000069H
  00407	6e		 DB	 110			; 0000006eH
  00408	6f		 DB	 111			; 0000006fH
  00409	72		 DB	 114			; 00000072H
  0040a	00		 DB	 0
$LN46@find_coreG:
  0040b	6d		 DB	 109			; 0000006dH
  0040c	61		 DB	 97			; 00000061H
  0040d	6a		 DB	 106			; 0000006aH
  0040e	6f		 DB	 111			; 0000006fH
  0040f	72		 DB	 114			; 00000072H
  00410	00		 DB	 0
_find_coreGL ENDP
_TEXT	ENDS
; Function compile flags: /Odtp /RTCsu /ZI
; File C:\Users\Light\source\repos\Spacemonster\Spacemonster-code\glad\glad.c
;	COMDAT _find_extensionsGL
_TEXT	SEGMENT
_find_extensionsGL PROC					; COMDAT

; 1757 : static int find_extensionsGL(void) {

  00000	55		 push	 ebp
  00001	8b ec		 mov	 ebp, esp
  00003	81 ec c0 00 00
	00		 sub	 esp, 192		; 000000c0H
  00009	53		 push	 ebx
  0000a	56		 push	 esi
  0000b	57		 push	 edi
  0000c	8d bd 40 ff ff
	ff		 lea	 edi, DWORD PTR [ebp-192]
  00012	b9 30 00 00 00	 mov	 ecx, 48			; 00000030H
  00017	b8 cc cc cc cc	 mov	 eax, -858993460		; ccccccccH
  0001c	f3 ab		 rep stosd
  0001e	b9 00 00 00 00	 mov	 ecx, OFFSET __550F0BDD_glad@c
  00023	e8 00 00 00 00	 call	 @__CheckForDebuggerJustMyCode@4

; 1758 : 	if (!get_exts()) return 0;

  00028	e8 00 00 00 00	 call	 _get_exts
  0002d	85 c0		 test	 eax, eax
  0002f	75 04		 jne	 SHORT $LN2@find_exten
  00031	33 c0		 xor	 eax, eax
  00033	eb 0a		 jmp	 SHORT $LN1@find_exten
$LN2@find_exten:

; 1759 : 	(void)&has_ext;
; 1760 : 	free_exts();

  00035	e8 00 00 00 00	 call	 _free_exts

; 1761 : 	return 1;

  0003a	b8 01 00 00 00	 mov	 eax, 1
$LN1@find_exten:

; 1762 : }

  0003f	5f		 pop	 edi
  00040	5e		 pop	 esi
  00041	5b		 pop	 ebx
  00042	81 c4 c0 00 00
	00		 add	 esp, 192		; 000000c0H
  00048	3b ec		 cmp	 ebp, esp
  0004a	e8 00 00 00 00	 call	 __RTC_CheckEsp
  0004f	8b e5		 mov	 esp, ebp
  00051	5d		 pop	 ebp
  00052	c3		 ret	 0
_find_extensionsGL ENDP
_TEXT	ENDS
; Function compile flags: /Odtp /RTCsu /ZI
; File C:\Users\Light\source\repos\Spacemonster\Spacemonster-code\glad\glad.c
;	COMDAT _load_GL_VERSION_3_3
_TEXT	SEGMENT
_load$ = 8						; size = 4
_load_GL_VERSION_3_3 PROC				; COMDAT

; 1696 : static void load_GL_VERSION_3_3(GLADloadproc load) {

  00000	55		 push	 ebp
  00001	8b ec		 mov	 ebp, esp
  00003	81 ec c0 00 00
	00		 sub	 esp, 192		; 000000c0H
  00009	53		 push	 ebx
  0000a	56		 push	 esi
  0000b	57		 push	 edi
  0000c	8d bd 40 ff ff
	ff		 lea	 edi, DWORD PTR [ebp-192]
  00012	b9 30 00 00 00	 mov	 ecx, 48			; 00000030H
  00017	b8 cc cc cc cc	 mov	 eax, -858993460		; ccccccccH
  0001c	f3 ab		 rep stosd
  0001e	b9 00 00 00 00	 mov	 ecx, OFFSET __550F0BDD_glad@c
  00023	e8 00 00 00 00	 call	 @__CheckForDebuggerJustMyCode@4

; 1697 : 	if(!GLAD_GL_VERSION_3_3) return;

  00028	83 3d 00 00 00
	00 00		 cmp	 DWORD PTR _GLAD_GL_VERSION_3_3, 0
  0002f	75 05		 jne	 SHORT $LN2@load_GL_VE
  00031	e9 aa 05 00 00	 jmp	 $LN1@load_GL_VE
$LN2@load_GL_VE:

; 1698 : 	glad_glBindFragDataLocationIndexed = (PFNGLBINDFRAGDATALOCATIONINDEXEDPROC)load("glBindFragDataLocationIndexed");

  00036	8b f4		 mov	 esi, esp
  00038	68 00 00 00 00	 push	 OFFSET ??_C@_0BO@POJBGCGG@glBindFragDataLocationIndexed@
  0003d	ff 55 08	 call	 DWORD PTR _load$[ebp]
  00040	83 c4 04	 add	 esp, 4
  00043	3b f4		 cmp	 esi, esp
  00045	e8 00 00 00 00	 call	 __RTC_CheckEsp
  0004a	a3 00 00 00 00	 mov	 DWORD PTR _glad_glBindFragDataLocationIndexed, eax

; 1699 : 	glad_glGetFragDataIndex = (PFNGLGETFRAGDATAINDEXPROC)load("glGetFragDataIndex");

  0004f	8b f4		 mov	 esi, esp
  00051	68 00 00 00 00	 push	 OFFSET ??_C@_0BD@COCJFEOH@glGetFragDataIndex@
  00056	ff 55 08	 call	 DWORD PTR _load$[ebp]
  00059	83 c4 04	 add	 esp, 4
  0005c	3b f4		 cmp	 esi, esp
  0005e	e8 00 00 00 00	 call	 __RTC_CheckEsp
  00063	a3 00 00 00 00	 mov	 DWORD PTR _glad_glGetFragDataIndex, eax

; 1700 : 	glad_glGenSamplers = (PFNGLGENSAMPLERSPROC)load("glGenSamplers");

  00068	8b f4		 mov	 esi, esp
  0006a	68 00 00 00 00	 push	 OFFSET ??_C@_0O@EMMLGGLG@glGenSamplers@
  0006f	ff 55 08	 call	 DWORD PTR _load$[ebp]
  00072	83 c4 04	 add	 esp, 4
  00075	3b f4		 cmp	 esi, esp
  00077	e8 00 00 00 00	 call	 __RTC_CheckEsp
  0007c	a3 00 00 00 00	 mov	 DWORD PTR _glad_glGenSamplers, eax

; 1701 : 	glad_glDeleteSamplers = (PFNGLDELETESAMPLERSPROC)load("glDeleteSamplers");

  00081	8b f4		 mov	 esi, esp
  00083	68 00 00 00 00	 push	 OFFSET ??_C@_0BB@FLPAOEOO@glDeleteSamplers@
  00088	ff 55 08	 call	 DWORD PTR _load$[ebp]
  0008b	83 c4 04	 add	 esp, 4
  0008e	3b f4		 cmp	 esi, esp
  00090	e8 00 00 00 00	 call	 __RTC_CheckEsp
  00095	a3 00 00 00 00	 mov	 DWORD PTR _glad_glDeleteSamplers, eax

; 1702 : 	glad_glIsSampler = (PFNGLISSAMPLERPROC)load("glIsSampler");

  0009a	8b f4		 mov	 esi, esp
  0009c	68 00 00 00 00	 push	 OFFSET ??_C@_0M@LAJKHOKJ@glIsSampler@
  000a1	ff 55 08	 call	 DWORD PTR _load$[ebp]
  000a4	83 c4 04	 add	 esp, 4
  000a7	3b f4		 cmp	 esi, esp
  000a9	e8 00 00 00 00	 call	 __RTC_CheckEsp
  000ae	a3 00 00 00 00	 mov	 DWORD PTR _glad_glIsSampler, eax

; 1703 : 	glad_glBindSampler = (PFNGLBINDSAMPLERPROC)load("glBindSampler");

  000b3	8b f4		 mov	 esi, esp
  000b5	68 00 00 00 00	 push	 OFFSET ??_C@_0O@PDEILAPG@glBindSampler@
  000ba	ff 55 08	 call	 DWORD PTR _load$[ebp]
  000bd	83 c4 04	 add	 esp, 4
  000c0	3b f4		 cmp	 esi, esp
  000c2	e8 00 00 00 00	 call	 __RTC_CheckEsp
  000c7	a3 00 00 00 00	 mov	 DWORD PTR _glad_glBindSampler, eax

; 1704 : 	glad_glSamplerParameteri = (PFNGLSAMPLERPARAMETERIPROC)load("glSamplerParameteri");

  000cc	8b f4		 mov	 esi, esp
  000ce	68 00 00 00 00	 push	 OFFSET ??_C@_0BE@KBCBMPJO@glSamplerParameteri@
  000d3	ff 55 08	 call	 DWORD PTR _load$[ebp]
  000d6	83 c4 04	 add	 esp, 4
  000d9	3b f4		 cmp	 esi, esp
  000db	e8 00 00 00 00	 call	 __RTC_CheckEsp
  000e0	a3 00 00 00 00	 mov	 DWORD PTR _glad_glSamplerParameteri, eax

; 1705 : 	glad_glSamplerParameteriv = (PFNGLSAMPLERPARAMETERIVPROC)load("glSamplerParameteriv");

  000e5	8b f4		 mov	 esi, esp
  000e7	68 00 00 00 00	 push	 OFFSET ??_C@_0BF@GOHDEBPM@glSamplerParameteriv@
  000ec	ff 55 08	 call	 DWORD PTR _load$[ebp]
  000ef	83 c4 04	 add	 esp, 4
  000f2	3b f4		 cmp	 esi, esp
  000f4	e8 00 00 00 00	 call	 __RTC_CheckEsp
  000f9	a3 00 00 00 00	 mov	 DWORD PTR _glad_glSamplerParameteriv, eax

; 1706 : 	glad_glSamplerParameterf = (PFNGLSAMPLERPARAMETERFPROC)load("glSamplerParameterf");

  000fe	8b f4		 mov	 esi, esp
  00100	68 00 00 00 00	 push	 OFFSET ??_C@_0BE@CGLJNDFB@glSamplerParameterf@
  00105	ff 55 08	 call	 DWORD PTR _load$[ebp]
  00108	83 c4 04	 add	 esp, 4
  0010b	3b f4		 cmp	 esi, esp
  0010d	e8 00 00 00 00	 call	 __RTC_CheckEsp
  00112	a3 00 00 00 00	 mov	 DWORD PTR _glad_glSamplerParameterf, eax

; 1707 : 	glad_glSamplerParameterfv = (PFNGLSAMPLERPARAMETERFVPROC)load("glSamplerParameterfv");

  00117	8b f4		 mov	 esi, esp
  00119	68 00 00 00 00	 push	 OFFSET ??_C@_0BF@GFCPAGMB@glSamplerParameterfv@
  0011e	ff 55 08	 call	 DWORD PTR _load$[ebp]
  00121	83 c4 04	 add	 esp, 4
  00124	3b f4		 cmp	 esi, esp
  00126	e8 00 00 00 00	 call	 __RTC_CheckEsp
  0012b	a3 00 00 00 00	 mov	 DWORD PTR _glad_glSamplerParameterfv, eax

; 1708 : 	glad_glSamplerParameterIiv = (PFNGLSAMPLERPARAMETERIIVPROC)load("glSamplerParameterIiv");

  00130	8b f4		 mov	 esi, esp
  00132	68 00 00 00 00	 push	 OFFSET ??_C@_0BG@HKEIFIHF@glSamplerParameterIiv@
  00137	ff 55 08	 call	 DWORD PTR _load$[ebp]
  0013a	83 c4 04	 add	 esp, 4
  0013d	3b f4		 cmp	 esi, esp
  0013f	e8 00 00 00 00	 call	 __RTC_CheckEsp
  00144	a3 00 00 00 00	 mov	 DWORD PTR _glad_glSamplerParameterIiv, eax

; 1709 : 	glad_glSamplerParameterIuiv = (PFNGLSAMPLERPARAMETERIUIVPROC)load("glSamplerParameterIuiv");

  00149	8b f4		 mov	 esi, esp
  0014b	68 00 00 00 00	 push	 OFFSET ??_C@_0BH@FEMFBPPB@glSamplerParameterIuiv@
  00150	ff 55 08	 call	 DWORD PTR _load$[ebp]
  00153	83 c4 04	 add	 esp, 4
  00156	3b f4		 cmp	 esi, esp
  00158	e8 00 00 00 00	 call	 __RTC_CheckEsp
  0015d	a3 00 00 00 00	 mov	 DWORD PTR _glad_glSamplerParameterIuiv, eax

; 1710 : 	glad_glGetSamplerParameteriv = (PFNGLGETSAMPLERPARAMETERIVPROC)load("glGetSamplerParameteriv");

  00162	8b f4		 mov	 esi, esp
  00164	68 00 00 00 00	 push	 OFFSET ??_C@_0BI@FECAOLJP@glGetSamplerParameteriv@
  00169	ff 55 08	 call	 DWORD PTR _load$[ebp]
  0016c	83 c4 04	 add	 esp, 4
  0016f	3b f4		 cmp	 esi, esp
  00171	e8 00 00 00 00	 call	 __RTC_CheckEsp
  00176	a3 00 00 00 00	 mov	 DWORD PTR _glad_glGetSamplerParameteriv, eax

; 1711 : 	glad_glGetSamplerParameterIiv = (PFNGLGETSAMPLERPARAMETERIIVPROC)load("glGetSamplerParameterIiv");

  0017b	8b f4		 mov	 esi, esp
  0017d	68 00 00 00 00	 push	 OFFSET ??_C@_0BJ@KOMJDLDN@glGetSamplerParameterIiv@
  00182	ff 55 08	 call	 DWORD PTR _load$[ebp]
  00185	83 c4 04	 add	 esp, 4
  00188	3b f4		 cmp	 esi, esp
  0018a	e8 00 00 00 00	 call	 __RTC_CheckEsp
  0018f	a3 00 00 00 00	 mov	 DWORD PTR _glad_glGetSamplerParameterIiv, eax

; 1712 : 	glad_glGetSamplerParameterfv = (PFNGLGETSAMPLERPARAMETERFVPROC)load("glGetSamplerParameterfv");

  00194	8b f4		 mov	 esi, esp
  00196	68 00 00 00 00	 push	 OFFSET ??_C@_0BI@FPHMKMKC@glGetSamplerParameterfv@
  0019b	ff 55 08	 call	 DWORD PTR _load$[ebp]
  0019e	83 c4 04	 add	 esp, 4
  001a1	3b f4		 cmp	 esi, esp
  001a3	e8 00 00 00 00	 call	 __RTC_CheckEsp
  001a8	a3 00 00 00 00	 mov	 DWORD PTR _glad_glGetSamplerParameterfv, eax

; 1713 : 	glad_glGetSamplerParameterIuiv = (PFNGLGETSAMPLERPARAMETERIUIVPROC)load("glGetSamplerParameterIuiv");

  001ad	8b f4		 mov	 esi, esp
  001af	68 00 00 00 00	 push	 OFFSET ??_C@_0BK@CMBGFHDA@glGetSamplerParameterIuiv@
  001b4	ff 55 08	 call	 DWORD PTR _load$[ebp]
  001b7	83 c4 04	 add	 esp, 4
  001ba	3b f4		 cmp	 esi, esp
  001bc	e8 00 00 00 00	 call	 __RTC_CheckEsp
  001c1	a3 00 00 00 00	 mov	 DWORD PTR _glad_glGetSamplerParameterIuiv, eax

; 1714 : 	glad_glQueryCounter = (PFNGLQUERYCOUNTERPROC)load("glQueryCounter");

  001c6	8b f4		 mov	 esi, esp
  001c8	68 00 00 00 00	 push	 OFFSET ??_C@_0P@KALICDIM@glQueryCounter@
  001cd	ff 55 08	 call	 DWORD PTR _load$[ebp]
  001d0	83 c4 04	 add	 esp, 4
  001d3	3b f4		 cmp	 esi, esp
  001d5	e8 00 00 00 00	 call	 __RTC_CheckEsp
  001da	a3 00 00 00 00	 mov	 DWORD PTR _glad_glQueryCounter, eax

; 1715 : 	glad_glGetQueryObjecti64v = (PFNGLGETQUERYOBJECTI64VPROC)load("glGetQueryObjecti64v");

  001df	8b f4		 mov	 esi, esp
  001e1	68 00 00 00 00	 push	 OFFSET ??_C@_0BF@JDAPDEPE@glGetQueryObjecti64v@
  001e6	ff 55 08	 call	 DWORD PTR _load$[ebp]
  001e9	83 c4 04	 add	 esp, 4
  001ec	3b f4		 cmp	 esi, esp
  001ee	e8 00 00 00 00	 call	 __RTC_CheckEsp
  001f3	a3 00 00 00 00	 mov	 DWORD PTR _glad_glGetQueryObjecti64v, eax

; 1716 : 	glad_glGetQueryObjectui64v = (PFNGLGETQUERYOBJECTUI64VPROC)load("glGetQueryObjectui64v");

  001f8	8b f4		 mov	 esi, esp
  001fa	68 00 00 00 00	 push	 OFFSET ??_C@_0BG@NEGGOMJO@glGetQueryObjectui64v@
  001ff	ff 55 08	 call	 DWORD PTR _load$[ebp]
  00202	83 c4 04	 add	 esp, 4
  00205	3b f4		 cmp	 esi, esp
  00207	e8 00 00 00 00	 call	 __RTC_CheckEsp
  0020c	a3 00 00 00 00	 mov	 DWORD PTR _glad_glGetQueryObjectui64v, eax

; 1717 : 	glad_glVertexAttribDivisor = (PFNGLVERTEXATTRIBDIVISORPROC)load("glVertexAttribDivisor");

  00211	8b f4		 mov	 esi, esp
  00213	68 00 00 00 00	 push	 OFFSET ??_C@_0BG@NEBMAEHM@glVertexAttribDivisor@
  00218	ff 55 08	 call	 DWORD PTR _load$[ebp]
  0021b	83 c4 04	 add	 esp, 4
  0021e	3b f4		 cmp	 esi, esp
  00220	e8 00 00 00 00	 call	 __RTC_CheckEsp
  00225	a3 00 00 00 00	 mov	 DWORD PTR _glad_glVertexAttribDivisor, eax

; 1718 : 	glad_glVertexAttribP1ui = (PFNGLVERTEXATTRIBP1UIPROC)load("glVertexAttribP1ui");

  0022a	8b f4		 mov	 esi, esp
  0022c	68 00 00 00 00	 push	 OFFSET ??_C@_0BD@FLACCOEN@glVertexAttribP1ui@
  00231	ff 55 08	 call	 DWORD PTR _load$[ebp]
  00234	83 c4 04	 add	 esp, 4
  00237	3b f4		 cmp	 esi, esp
  00239	e8 00 00 00 00	 call	 __RTC_CheckEsp
  0023e	a3 00 00 00 00	 mov	 DWORD PTR _glad_glVertexAttribP1ui, eax

; 1719 : 	glad_glVertexAttribP1uiv = (PFNGLVERTEXATTRIBP1UIVPROC)load("glVertexAttribP1uiv");

  00243	8b f4		 mov	 esi, esp
  00245	68 00 00 00 00	 push	 OFFSET ??_C@_0BE@HBFDOBHD@glVertexAttribP1uiv@
  0024a	ff 55 08	 call	 DWORD PTR _load$[ebp]
  0024d	83 c4 04	 add	 esp, 4
  00250	3b f4		 cmp	 esi, esp
  00252	e8 00 00 00 00	 call	 __RTC_CheckEsp
  00257	a3 00 00 00 00	 mov	 DWORD PTR _glad_glVertexAttribP1uiv, eax

; 1720 : 	glad_glVertexAttribP2ui = (PFNGLVERTEXATTRIBP2UIPROC)load("glVertexAttribP2ui");

  0025c	8b f4		 mov	 esi, esp
  0025e	68 00 00 00 00	 push	 OFFSET ??_C@_0BD@EJLHIBKD@glVertexAttribP2ui@
  00263	ff 55 08	 call	 DWORD PTR _load$[ebp]
  00266	83 c4 04	 add	 esp, 4
  00269	3b f4		 cmp	 esi, esp
  0026b	e8 00 00 00 00	 call	 __RTC_CheckEsp
  00270	a3 00 00 00 00	 mov	 DWORD PTR _glad_glVertexAttribP2ui, eax

; 1721 : 	glad_glVertexAttribP2uiv = (PFNGLVERTEXATTRIBP2UIVPROC)load("glVertexAttribP2uiv");

  00275	8b f4		 mov	 esi, esp
  00277	68 00 00 00 00	 push	 OFFSET ??_C@_0BE@DGPDJLKD@glVertexAttribP2uiv@
  0027c	ff 55 08	 call	 DWORD PTR _load$[ebp]
  0027f	83 c4 04	 add	 esp, 4
  00282	3b f4		 cmp	 esi, esp
  00284	e8 00 00 00 00	 call	 __RTC_CheckEsp
  00289	a3 00 00 00 00	 mov	 DWORD PTR _glad_glVertexAttribP2uiv, eax

; 1722 : 	glad_glVertexAttribP3ui = (PFNGLVERTEXATTRIBP3UIPROC)load("glVertexAttribP3ui");

  0028e	8b f4		 mov	 esi, esp
  00290	68 00 00 00 00	 push	 OFFSET ??_C@_0BD@PBALOGMG@glVertexAttribP3ui@
  00295	ff 55 08	 call	 DWORD PTR _load$[ebp]
  00298	83 c4 04	 add	 esp, 4
  0029b	3b f4		 cmp	 esi, esp
  0029d	e8 00 00 00 00	 call	 __RTC_CheckEsp
  002a2	a3 00 00 00 00	 mov	 DWORD PTR _glad_glVertexAttribP3ui, eax

; 1723 : 	glad_glVertexAttribP3uiv = (PFNGLVERTEXATTRIBP3UIVPROC)load("glVertexAttribP3uiv");

  002a7	8b f4		 mov	 esi, esp
  002a9	68 00 00 00 00	 push	 OFFSET ??_C@_0BE@LJDLCBD@glVertexAttribP3uiv@
  002ae	ff 55 08	 call	 DWORD PTR _load$[ebp]
  002b1	83 c4 04	 add	 esp, 4
  002b4	3b f4		 cmp	 esi, esp
  002b6	e8 00 00 00 00	 call	 __RTC_CheckEsp
  002bb	a3 00 00 00 00	 mov	 DWORD PTR _glad_glVertexAttribP3uiv, eax

; 1724 : 	glad_glVertexAttribP4ui = (PFNGLVERTEXATTRIBP4UIPROC)load("glVertexAttribP4ui");

  002c0	8b f4		 mov	 esi, esp
  002c2	68 00 00 00 00	 push	 OFFSET ??_C@_0BD@GMNMNOHP@glVertexAttribP4ui@
  002c7	ff 55 08	 call	 DWORD PTR _load$[ebp]
  002ca	83 c4 04	 add	 esp, 4
  002cd	3b f4		 cmp	 esi, esp
  002cf	e8 00 00 00 00	 call	 __RTC_CheckEsp
  002d4	a3 00 00 00 00	 mov	 DWORD PTR _glad_glVertexAttribP4ui, eax

; 1725 : 	glad_glVertexAttribP4uiv = (PFNGLVERTEXATTRIBP4UIVPROC)load("glVertexAttribP4uiv");

  002d9	8b f4		 mov	 esi, esp
  002db	68 00 00 00 00	 push	 OFFSET ??_C@_0BE@LJLDGOAD@glVertexAttribP4uiv@
  002e0	ff 55 08	 call	 DWORD PTR _load$[ebp]
  002e3	83 c4 04	 add	 esp, 4
  002e6	3b f4		 cmp	 esi, esp
  002e8	e8 00 00 00 00	 call	 __RTC_CheckEsp
  002ed	a3 00 00 00 00	 mov	 DWORD PTR _glad_glVertexAttribP4uiv, eax

; 1726 : 	glad_glVertexP2ui = (PFNGLVERTEXP2UIPROC)load("glVertexP2ui");

  002f2	8b f4		 mov	 esi, esp
  002f4	68 00 00 00 00	 push	 OFFSET ??_C@_0N@EFBCIBMC@glVertexP2ui@
  002f9	ff 55 08	 call	 DWORD PTR _load$[ebp]
  002fc	83 c4 04	 add	 esp, 4
  002ff	3b f4		 cmp	 esi, esp
  00301	e8 00 00 00 00	 call	 __RTC_CheckEsp
  00306	a3 00 00 00 00	 mov	 DWORD PTR _glad_glVertexP2ui, eax

; 1727 : 	glad_glVertexP2uiv = (PFNGLVERTEXP2UIVPROC)load("glVertexP2uiv");

  0030b	8b f4		 mov	 esi, esp
  0030d	68 00 00 00 00	 push	 OFFSET ??_C@_0O@MEKGPGN@glVertexP2uiv@
  00312	ff 55 08	 call	 DWORD PTR _load$[ebp]
  00315	83 c4 04	 add	 esp, 4
  00318	3b f4		 cmp	 esi, esp
  0031a	e8 00 00 00 00	 call	 __RTC_CheckEsp
  0031f	a3 00 00 00 00	 mov	 DWORD PTR _glad_glVertexP2uiv, eax

; 1728 : 	glad_glVertexP3ui = (PFNGLVERTEXP3UIPROC)load("glVertexP3ui");

  00324	8b f4		 mov	 esi, esp
  00326	68 00 00 00 00	 push	 OFFSET ??_C@_0N@PNKOOGKH@glVertexP3ui@
  0032b	ff 55 08	 call	 DWORD PTR _load$[ebp]
  0032e	83 c4 04	 add	 esp, 4
  00331	3b f4		 cmp	 esi, esp
  00333	e8 00 00 00 00	 call	 __RTC_CheckEsp
  00338	a3 00 00 00 00	 mov	 DWORD PTR _glad_glVertexP3ui, eax

; 1729 : 	glad_glVertexP3uiv = (PFNGLVERTEXP3UIVPROC)load("glVertexP3uiv");

  0033d	8b f4		 mov	 esi, esp
  0033f	68 00 00 00 00	 push	 OFFSET ??_C@_0O@DBCKEGNN@glVertexP3uiv@
  00344	ff 55 08	 call	 DWORD PTR _load$[ebp]
  00347	83 c4 04	 add	 esp, 4
  0034a	3b f4		 cmp	 esi, esp
  0034c	e8 00 00 00 00	 call	 __RTC_CheckEsp
  00351	a3 00 00 00 00	 mov	 DWORD PTR _glad_glVertexP3uiv, eax

; 1730 : 	glad_glVertexP4ui = (PFNGLVERTEXP4UIPROC)load("glVertexP4ui");

  00356	8b f4		 mov	 esi, esp
  00358	68 00 00 00 00	 push	 OFFSET ??_C@_0N@GAHJNOBO@glVertexP4ui@
  0035d	ff 55 08	 call	 DWORD PTR _load$[ebp]
  00360	83 c4 04	 add	 esp, 4
  00363	3b f4		 cmp	 esi, esp
  00365	e8 00 00 00 00	 call	 __RTC_CheckEsp
  0036a	a3 00 00 00 00	 mov	 DWORD PTR _glad_glVertexP4ui, eax

; 1731 : 	glad_glVertexP4uiv = (PFNGLVERTEXP4UIVPROC)load("glVertexP4uiv");

  0036f	8b f4		 mov	 esi, esp
  00371	68 00 00 00 00	 push	 OFFSET ??_C@_0O@IDAKJKMN@glVertexP4uiv@
  00376	ff 55 08	 call	 DWORD PTR _load$[ebp]
  00379	83 c4 04	 add	 esp, 4
  0037c	3b f4		 cmp	 esi, esp
  0037e	e8 00 00 00 00	 call	 __RTC_CheckEsp
  00383	a3 00 00 00 00	 mov	 DWORD PTR _glad_glVertexP4uiv, eax

; 1732 : 	glad_glTexCoordP1ui = (PFNGLTEXCOORDP1UIPROC)load("glTexCoordP1ui");

  00388	8b f4		 mov	 esi, esp
  0038a	68 00 00 00 00	 push	 OFFSET ??_C@_0P@OLJHLLHJ@glTexCoordP1ui@
  0038f	ff 55 08	 call	 DWORD PTR _load$[ebp]
  00392	83 c4 04	 add	 esp, 4
  00395	3b f4		 cmp	 esi, esp
  00397	e8 00 00 00 00	 call	 __RTC_CheckEsp
  0039c	a3 00 00 00 00	 mov	 DWORD PTR _glad_glTexCoordP1ui, eax

; 1733 : 	glad_glTexCoordP1uiv = (PFNGLTEXCOORDP1UIVPROC)load("glTexCoordP1uiv");

  003a1	8b f4		 mov	 esi, esp
  003a3	68 00 00 00 00	 push	 OFFSET ??_C@_0BA@FAFHIAFD@glTexCoordP1uiv@
  003a8	ff 55 08	 call	 DWORD PTR _load$[ebp]
  003ab	83 c4 04	 add	 esp, 4
  003ae	3b f4		 cmp	 esi, esp
  003b0	e8 00 00 00 00	 call	 __RTC_CheckEsp
  003b5	a3 00 00 00 00	 mov	 DWORD PTR _glad_glTexCoordP1uiv, eax

; 1734 : 	glad_glTexCoordP2ui = (PFNGLTEXCOORDP2UIPROC)load("glTexCoordP2ui");

  003ba	8b f4		 mov	 esi, esp
  003bc	68 00 00 00 00	 push	 OFFSET ??_C@_0P@PJCCBEJH@glTexCoordP2ui@
  003c1	ff 55 08	 call	 DWORD PTR _load$[ebp]
  003c4	83 c4 04	 add	 esp, 4
  003c7	3b f4		 cmp	 esi, esp
  003c9	e8 00 00 00 00	 call	 __RTC_CheckEsp
  003ce	a3 00 00 00 00	 mov	 DWORD PTR _glad_glTexCoordP2ui, eax

; 1735 : 	glad_glTexCoordP2uiv = (PFNGLTEXCOORDP2UIVPROC)load("glTexCoordP2uiv");

  003d3	8b f4		 mov	 esi, esp
  003d5	68 00 00 00 00	 push	 OFFSET ??_C@_0BA@BHPHPKID@glTexCoordP2uiv@
  003da	ff 55 08	 call	 DWORD PTR _load$[ebp]
  003dd	83 c4 04	 add	 esp, 4
  003e0	3b f4		 cmp	 esi, esp
  003e2	e8 00 00 00 00	 call	 __RTC_CheckEsp
  003e7	a3 00 00 00 00	 mov	 DWORD PTR _glad_glTexCoordP2uiv, eax

; 1736 : 	glad_glTexCoordP3ui = (PFNGLTEXCOORDP3UIPROC)load("glTexCoordP3ui");

  003ec	8b f4		 mov	 esi, esp
  003ee	68 00 00 00 00	 push	 OFFSET ??_C@_0P@EBJOHDPC@glTexCoordP3ui@
  003f3	ff 55 08	 call	 DWORD PTR _load$[ebp]
  003f6	83 c4 04	 add	 esp, 4
  003f9	3b f4		 cmp	 esi, esp
  003fb	e8 00 00 00 00	 call	 __RTC_CheckEsp
  00400	a3 00 00 00 00	 mov	 DWORD PTR _glad_glTexCoordP3ui, eax

; 1737 : 	glad_glTexCoordP3uiv = (PFNGLTEXCOORDP3UIVPROC)load("glTexCoordP3uiv");

  00405	8b f4		 mov	 esi, esp
  00407	68 00 00 00 00	 push	 OFFSET ??_C@_0BA@CKJHNDDD@glTexCoordP3uiv@
  0040c	ff 55 08	 call	 DWORD PTR _load$[ebp]
  0040f	83 c4 04	 add	 esp, 4
  00412	3b f4		 cmp	 esi, esp
  00414	e8 00 00 00 00	 call	 __RTC_CheckEsp
  00419	a3 00 00 00 00	 mov	 DWORD PTR _glad_glTexCoordP3uiv, eax

; 1738 : 	glad_glTexCoordP4ui = (PFNGLTEXCOORDP4UIPROC)load("glTexCoordP4ui");

  0041e	8b f4		 mov	 esi, esp
  00420	68 00 00 00 00	 push	 OFFSET ??_C@_0P@NMEJELEL@glTexCoordP4ui@
  00425	ff 55 08	 call	 DWORD PTR _load$[ebp]
  00428	83 c4 04	 add	 esp, 4
  0042b	3b f4		 cmp	 esi, esp
  0042d	e8 00 00 00 00	 call	 __RTC_CheckEsp
  00432	a3 00 00 00 00	 mov	 DWORD PTR _glad_glTexCoordP4ui, eax

; 1739 : 	glad_glTexCoordP4uiv = (PFNGLTEXCOORDP4UIVPROC)load("glTexCoordP4uiv");

  00437	8b f4		 mov	 esi, esp
  00439	68 00 00 00 00	 push	 OFFSET ??_C@_0BA@JILHAPCD@glTexCoordP4uiv@
  0043e	ff 55 08	 call	 DWORD PTR _load$[ebp]
  00441	83 c4 04	 add	 esp, 4
  00444	3b f4		 cmp	 esi, esp
  00446	e8 00 00 00 00	 call	 __RTC_CheckEsp
  0044b	a3 00 00 00 00	 mov	 DWORD PTR _glad_glTexCoordP4uiv, eax

; 1740 : 	glad_glMultiTexCoordP1ui = (PFNGLMULTITEXCOORDP1UIPROC)load("glMultiTexCoordP1ui");

  00450	8b f4		 mov	 esi, esp
  00452	68 00 00 00 00	 push	 OFFSET ??_C@_0BE@OAHHKHKG@glMultiTexCoordP1ui@
  00457	ff 55 08	 call	 DWORD PTR _load$[ebp]
  0045a	83 c4 04	 add	 esp, 4
  0045d	3b f4		 cmp	 esi, esp
  0045f	e8 00 00 00 00	 call	 __RTC_CheckEsp
  00464	a3 00 00 00 00	 mov	 DWORD PTR _glad_glMultiTexCoordP1ui, eax

; 1741 : 	glad_glMultiTexCoordP1uiv = (PFNGLMULTITEXCOORDP1UIVPROC)load("glMultiTexCoordP1uiv");

  00469	8b f4		 mov	 esi, esp
  0046b	68 00 00 00 00	 push	 OFFSET ??_C@_0BF@EGDAKPAK@glMultiTexCoordP1uiv@
  00470	ff 55 08	 call	 DWORD PTR _load$[ebp]
  00473	83 c4 04	 add	 esp, 4
  00476	3b f4		 cmp	 esi, esp
  00478	e8 00 00 00 00	 call	 __RTC_CheckEsp
  0047d	a3 00 00 00 00	 mov	 DWORD PTR _glad_glMultiTexCoordP1uiv, eax

; 1742 : 	glad_glMultiTexCoordP2ui = (PFNGLMULTITEXCOORDP2UIPROC)load("glMultiTexCoordP2ui");

  00482	8b f4		 mov	 esi, esp
  00484	68 00 00 00 00	 push	 OFFSET ??_C@_0BE@PCMCAIEI@glMultiTexCoordP2ui@
  00489	ff 55 08	 call	 DWORD PTR _load$[ebp]
  0048c	83 c4 04	 add	 esp, 4
  0048f	3b f4		 cmp	 esi, esp
  00491	e8 00 00 00 00	 call	 __RTC_CheckEsp
  00496	a3 00 00 00 00	 mov	 DWORD PTR _glad_glMultiTexCoordP2ui, eax

; 1743 : 	glad_glMultiTexCoordP2uiv = (PFNGLMULTITEXCOORDP2UIVPROC)load("glMultiTexCoordP2uiv");

  0049b	8b f4		 mov	 esi, esp
  0049d	68 00 00 00 00	 push	 OFFSET ??_C@_0BF@BJANFNK@glMultiTexCoordP2uiv@
  004a2	ff 55 08	 call	 DWORD PTR _load$[ebp]
  004a5	83 c4 04	 add	 esp, 4
  004a8	3b f4		 cmp	 esi, esp
  004aa	e8 00 00 00 00	 call	 __RTC_CheckEsp
  004af	a3 00 00 00 00	 mov	 DWORD PTR _glad_glMultiTexCoordP2uiv, eax

; 1744 : 	glad_glMultiTexCoordP3ui = (PFNGLMULTITEXCOORDP3UIPROC)load("glMultiTexCoordP3ui");

  004b4	8b f4		 mov	 esi, esp
  004b6	68 00 00 00 00	 push	 OFFSET ??_C@_0BE@EKHOGPCN@glMultiTexCoordP3ui@
  004bb	ff 55 08	 call	 DWORD PTR _load$[ebp]
  004be	83 c4 04	 add	 esp, 4
  004c1	3b f4		 cmp	 esi, esp
  004c3	e8 00 00 00 00	 call	 __RTC_CheckEsp
  004c8	a3 00 00 00 00	 mov	 DWORD PTR _glad_glMultiTexCoordP3ui, eax

; 1745 : 	glad_glMultiTexCoordP3uiv = (PFNGLMULTITEXCOORDP3UIVPROC)load("glMultiTexCoordP3uiv");

  004cd	8b f4		 mov	 esi, esp
  004cf	68 00 00 00 00	 push	 OFFSET ??_C@_0BF@DMPAPMGK@glMultiTexCoordP3uiv@
  004d4	ff 55 08	 call	 DWORD PTR _load$[ebp]
  004d7	83 c4 04	 add	 esp, 4
  004da	3b f4		 cmp	 esi, esp
  004dc	e8 00 00 00 00	 call	 __RTC_CheckEsp
  004e1	a3 00 00 00 00	 mov	 DWORD PTR _glad_glMultiTexCoordP3uiv, eax

; 1746 : 	glad_glMultiTexCoordP4ui = (PFNGLMULTITEXCOORDP4UIPROC)load("glMultiTexCoordP4ui");

  004e6	8b f4		 mov	 esi, esp
  004e8	68 00 00 00 00	 push	 OFFSET ??_C@_0BE@NHKJFHJE@glMultiTexCoordP4ui@
  004ed	ff 55 08	 call	 DWORD PTR _load$[ebp]
  004f0	83 c4 04	 add	 esp, 4
  004f3	3b f4		 cmp	 esi, esp
  004f5	e8 00 00 00 00	 call	 __RTC_CheckEsp
  004fa	a3 00 00 00 00	 mov	 DWORD PTR _glad_glMultiTexCoordP4ui, eax

; 1747 : 	glad_glMultiTexCoordP4uiv = (PFNGLMULTITEXCOORDP4UIVPROC)load("glMultiTexCoordP4uiv");

  004ff	8b f4		 mov	 esi, esp
  00501	68 00 00 00 00	 push	 OFFSET ??_C@_0BF@IONACAHK@glMultiTexCoordP4uiv@
  00506	ff 55 08	 call	 DWORD PTR _load$[ebp]
  00509	83 c4 04	 add	 esp, 4
  0050c	3b f4		 cmp	 esi, esp
  0050e	e8 00 00 00 00	 call	 __RTC_CheckEsp
  00513	a3 00 00 00 00	 mov	 DWORD PTR _glad_glMultiTexCoordP4uiv, eax

; 1748 : 	glad_glNormalP3ui = (PFNGLNORMALP3UIPROC)load("glNormalP3ui");

  00518	8b f4		 mov	 esi, esp
  0051a	68 00 00 00 00	 push	 OFFSET ??_C@_0N@PBEFBNHO@glNormalP3ui@
  0051f	ff 55 08	 call	 DWORD PTR _load$[ebp]
  00522	83 c4 04	 add	 esp, 4
  00525	3b f4		 cmp	 esi, esp
  00527	e8 00 00 00 00	 call	 __RTC_CheckEsp
  0052c	a3 00 00 00 00	 mov	 DWORD PTR _glad_glNormalP3ui, eax

; 1749 : 	glad_glNormalP3uiv = (PFNGLNORMALP3UIVPROC)load("glNormalP3uiv");

  00531	8b f4		 mov	 esi, esp
  00533	68 00 00 00 00	 push	 OFFSET ??_C@_0O@MOCJMHFG@glNormalP3uiv@
  00538	ff 55 08	 call	 DWORD PTR _load$[ebp]
  0053b	83 c4 04	 add	 esp, 4
  0053e	3b f4		 cmp	 esi, esp
  00540	e8 00 00 00 00	 call	 __RTC_CheckEsp
  00545	a3 00 00 00 00	 mov	 DWORD PTR _glad_glNormalP3uiv, eax

; 1750 : 	glad_glColorP3ui = (PFNGLCOLORP3UIPROC)load("glColorP3ui");

  0054a	8b f4		 mov	 esi, esp
  0054c	68 00 00 00 00	 push	 OFFSET ??_C@_0M@PEKBINNN@glColorP3ui@
  00551	ff 55 08	 call	 DWORD PTR _load$[ebp]
  00554	83 c4 04	 add	 esp, 4
  00557	3b f4		 cmp	 esi, esp
  00559	e8 00 00 00 00	 call	 __RTC_CheckEsp
  0055e	a3 00 00 00 00	 mov	 DWORD PTR _glad_glColorP3ui, eax

; 1751 : 	glad_glColorP3uiv = (PFNGLCOLORP3UIVPROC)load("glColorP3uiv");

  00563	8b f4		 mov	 esi, esp
  00565	68 00 00 00 00	 push	 OFFSET ??_C@_0N@IBPDNBJE@glColorP3uiv@
  0056a	ff 55 08	 call	 DWORD PTR _load$[ebp]
  0056d	83 c4 04	 add	 esp, 4
  00570	3b f4		 cmp	 esi, esp
  00572	e8 00 00 00 00	 call	 __RTC_CheckEsp
  00577	a3 00 00 00 00	 mov	 DWORD PTR _glad_glColorP3uiv, eax

; 1752 : 	glad_glColorP4ui = (PFNGLCOLORP4UIPROC)load("glColorP4ui");

  0057c	8b f4		 mov	 esi, esp
  0057e	68 00 00 00 00	 push	 OFFSET ??_C@_0M@GJHGLFGE@glColorP4ui@
  00583	ff 55 08	 call	 DWORD PTR _load$[ebp]
  00586	83 c4 04	 add	 esp, 4
  00589	3b f4		 cmp	 esi, esp
  0058b	e8 00 00 00 00	 call	 __RTC_CheckEsp
  00590	a3 00 00 00 00	 mov	 DWORD PTR _glad_glColorP4ui, eax

; 1753 : 	glad_glColorP4uiv = (PFNGLCOLORP4UIVPROC)load("glColorP4uiv");

  00595	8b f4		 mov	 esi, esp
  00597	68 00 00 00 00	 push	 OFFSET ??_C@_0N@DDNDANIE@glColorP4uiv@
  0059c	ff 55 08	 call	 DWORD PTR _load$[ebp]
  0059f	83 c4 04	 add	 esp, 4
  005a2	3b f4		 cmp	 esi, esp
  005a4	e8 00 00 00 00	 call	 __RTC_CheckEsp
  005a9	a3 00 00 00 00	 mov	 DWORD PTR _glad_glColorP4uiv, eax

; 1754 : 	glad_glSecondaryColorP3ui = (PFNGLSECONDARYCOLORP3UIPROC)load("glSecondaryColorP3ui");

  005ae	8b f4		 mov	 esi, esp
  005b0	68 00 00 00 00	 push	 OFFSET ??_C@_0BF@PDDGBPKP@glSecondaryColorP3ui@
  005b5	ff 55 08	 call	 DWORD PTR _load$[ebp]
  005b8	83 c4 04	 add	 esp, 4
  005bb	3b f4		 cmp	 esi, esp
  005bd	e8 00 00 00 00	 call	 __RTC_CheckEsp
  005c2	a3 00 00 00 00	 mov	 DWORD PTR _glad_glSecondaryColorP3ui, eax

; 1755 : 	glad_glSecondaryColorP3uiv = (PFNGLSECONDARYCOLORP3UIVPROC)load("glSecondaryColorP3uiv");

  005c7	8b f4		 mov	 esi, esp
  005c9	68 00 00 00 00	 push	 OFFSET ??_C@_0BG@DPPPFGBG@glSecondaryColorP3uiv@
  005ce	ff 55 08	 call	 DWORD PTR _load$[ebp]
  005d1	83 c4 04	 add	 esp, 4
  005d4	3b f4		 cmp	 esi, esp
  005d6	e8 00 00 00 00	 call	 __RTC_CheckEsp
  005db	a3 00 00 00 00	 mov	 DWORD PTR _glad_glSecondaryColorP3uiv, eax
$LN1@load_GL_VE:

; 1756 : }

  005e0	5f		 pop	 edi
  005e1	5e		 pop	 esi
  005e2	5b		 pop	 ebx
  005e3	81 c4 c0 00 00
	00		 add	 esp, 192		; 000000c0H
  005e9	3b ec		 cmp	 ebp, esp
  005eb	e8 00 00 00 00	 call	 __RTC_CheckEsp
  005f0	8b e5		 mov	 esp, ebp
  005f2	5d		 pop	 ebp
  005f3	c3		 ret	 0
_load_GL_VERSION_3_3 ENDP
_TEXT	ENDS
; Function compile flags: /Odtp /RTCsu /ZI
; File C:\Users\Light\source\repos\Spacemonster\Spacemonster-code\glad\glad.c
;	COMDAT _load_GL_VERSION_3_2
_TEXT	SEGMENT
_load$ = 8						; size = 4
_load_GL_VERSION_3_2 PROC				; COMDAT

; 1674 : static void load_GL_VERSION_3_2(GLADloadproc load) {

  00000	55		 push	 ebp
  00001	8b ec		 mov	 ebp, esp
  00003	81 ec c0 00 00
	00		 sub	 esp, 192		; 000000c0H
  00009	53		 push	 ebx
  0000a	56		 push	 esi
  0000b	57		 push	 edi
  0000c	8d bd 40 ff ff
	ff		 lea	 edi, DWORD PTR [ebp-192]
  00012	b9 30 00 00 00	 mov	 ecx, 48			; 00000030H
  00017	b8 cc cc cc cc	 mov	 eax, -858993460		; ccccccccH
  0001c	f3 ab		 rep stosd
  0001e	b9 00 00 00 00	 mov	 ecx, OFFSET __550F0BDD_glad@c
  00023	e8 00 00 00 00	 call	 @__CheckForDebuggerJustMyCode@4

; 1675 : 	if(!GLAD_GL_VERSION_3_2) return;

  00028	83 3d 00 00 00
	00 00		 cmp	 DWORD PTR _GLAD_GL_VERSION_3_2, 0
  0002f	75 05		 jne	 SHORT $LN2@load_GL_VE
  00031	e9 db 01 00 00	 jmp	 $LN1@load_GL_VE
$LN2@load_GL_VE:

; 1676 : 	glad_glDrawElementsBaseVertex = (PFNGLDRAWELEMENTSBASEVERTEXPROC)load("glDrawElementsBaseVertex");

  00036	8b f4		 mov	 esi, esp
  00038	68 00 00 00 00	 push	 OFFSET ??_C@_0BJ@LFMMIAHA@glDrawElementsBaseVertex@
  0003d	ff 55 08	 call	 DWORD PTR _load$[ebp]
  00040	83 c4 04	 add	 esp, 4
  00043	3b f4		 cmp	 esi, esp
  00045	e8 00 00 00 00	 call	 __RTC_CheckEsp
  0004a	a3 00 00 00 00	 mov	 DWORD PTR _glad_glDrawElementsBaseVertex, eax

; 1677 : 	glad_glDrawRangeElementsBaseVertex = (PFNGLDRAWRANGEELEMENTSBASEVERTEXPROC)load("glDrawRangeElementsBaseVertex");

  0004f	8b f4		 mov	 esi, esp
  00051	68 00 00 00 00	 push	 OFFSET ??_C@_0BO@KBDDBILP@glDrawRangeElementsBaseVertex@
  00056	ff 55 08	 call	 DWORD PTR _load$[ebp]
  00059	83 c4 04	 add	 esp, 4
  0005c	3b f4		 cmp	 esi, esp
  0005e	e8 00 00 00 00	 call	 __RTC_CheckEsp
  00063	a3 00 00 00 00	 mov	 DWORD PTR _glad_glDrawRangeElementsBaseVertex, eax

; 1678 : 	glad_glDrawElementsInstancedBaseVertex = (PFNGLDRAWELEMENTSINSTANCEDBASEVERTEXPROC)load("glDrawElementsInstancedBaseVertex");

  00068	8b f4		 mov	 esi, esp
  0006a	68 00 00 00 00	 push	 OFFSET ??_C@_0CC@KLOIIKNA@glDrawElementsInstancedBaseVert@
  0006f	ff 55 08	 call	 DWORD PTR _load$[ebp]
  00072	83 c4 04	 add	 esp, 4
  00075	3b f4		 cmp	 esi, esp
  00077	e8 00 00 00 00	 call	 __RTC_CheckEsp
  0007c	a3 00 00 00 00	 mov	 DWORD PTR _glad_glDrawElementsInstancedBaseVertex, eax

; 1679 : 	glad_glMultiDrawElementsBaseVertex = (PFNGLMULTIDRAWELEMENTSBASEVERTEXPROC)load("glMultiDrawElementsBaseVertex");

  00081	8b f4		 mov	 esi, esp
  00083	68 00 00 00 00	 push	 OFFSET ??_C@_0BO@NAPFJEEK@glMultiDrawElementsBaseVertex@
  00088	ff 55 08	 call	 DWORD PTR _load$[ebp]
  0008b	83 c4 04	 add	 esp, 4
  0008e	3b f4		 cmp	 esi, esp
  00090	e8 00 00 00 00	 call	 __RTC_CheckEsp
  00095	a3 00 00 00 00	 mov	 DWORD PTR _glad_glMultiDrawElementsBaseVertex, eax

; 1680 : 	glad_glProvokingVertex = (PFNGLPROVOKINGVERTEXPROC)load("glProvokingVertex");

  0009a	8b f4		 mov	 esi, esp
  0009c	68 00 00 00 00	 push	 OFFSET ??_C@_0BC@ECOAPEBI@glProvokingVertex@
  000a1	ff 55 08	 call	 DWORD PTR _load$[ebp]
  000a4	83 c4 04	 add	 esp, 4
  000a7	3b f4		 cmp	 esi, esp
  000a9	e8 00 00 00 00	 call	 __RTC_CheckEsp
  000ae	a3 00 00 00 00	 mov	 DWORD PTR _glad_glProvokingVertex, eax

; 1681 : 	glad_glFenceSync = (PFNGLFENCESYNCPROC)load("glFenceSync");

  000b3	8b f4		 mov	 esi, esp
  000b5	68 00 00 00 00	 push	 OFFSET ??_C@_0M@EFGFPFLP@glFenceSync@
  000ba	ff 55 08	 call	 DWORD PTR _load$[ebp]
  000bd	83 c4 04	 add	 esp, 4
  000c0	3b f4		 cmp	 esi, esp
  000c2	e8 00 00 00 00	 call	 __RTC_CheckEsp
  000c7	a3 00 00 00 00	 mov	 DWORD PTR _glad_glFenceSync, eax

; 1682 : 	glad_glIsSync = (PFNGLISSYNCPROC)load("glIsSync");

  000cc	8b f4		 mov	 esi, esp
  000ce	68 00 00 00 00	 push	 OFFSET ??_C@_08JPIIHJEO@glIsSync@
  000d3	ff 55 08	 call	 DWORD PTR _load$[ebp]
  000d6	83 c4 04	 add	 esp, 4
  000d9	3b f4		 cmp	 esi, esp
  000db	e8 00 00 00 00	 call	 __RTC_CheckEsp
  000e0	a3 00 00 00 00	 mov	 DWORD PTR _glad_glIsSync, eax

; 1683 : 	glad_glDeleteSync = (PFNGLDELETESYNCPROC)load("glDeleteSync");

  000e5	8b f4		 mov	 esi, esp
  000e7	68 00 00 00 00	 push	 OFFSET ??_C@_0N@PIFDNDFG@glDeleteSync@
  000ec	ff 55 08	 call	 DWORD PTR _load$[ebp]
  000ef	83 c4 04	 add	 esp, 4
  000f2	3b f4		 cmp	 esi, esp
  000f4	e8 00 00 00 00	 call	 __RTC_CheckEsp
  000f9	a3 00 00 00 00	 mov	 DWORD PTR _glad_glDeleteSync, eax

; 1684 : 	glad_glClientWaitSync = (PFNGLCLIENTWAITSYNCPROC)load("glClientWaitSync");

  000fe	8b f4		 mov	 esi, esp
  00100	68 00 00 00 00	 push	 OFFSET ??_C@_0BB@KDMPGJAC@glClientWaitSync@
  00105	ff 55 08	 call	 DWORD PTR _load$[ebp]
  00108	83 c4 04	 add	 esp, 4
  0010b	3b f4		 cmp	 esi, esp
  0010d	e8 00 00 00 00	 call	 __RTC_CheckEsp
  00112	a3 00 00 00 00	 mov	 DWORD PTR _glad_glClientWaitSync, eax

; 1685 : 	glad_glWaitSync = (PFNGLWAITSYNCPROC)load("glWaitSync");

  00117	8b f4		 mov	 esi, esp
  00119	68 00 00 00 00	 push	 OFFSET ??_C@_0L@MHLOGHGO@glWaitSync@
  0011e	ff 55 08	 call	 DWORD PTR _load$[ebp]
  00121	83 c4 04	 add	 esp, 4
  00124	3b f4		 cmp	 esi, esp
  00126	e8 00 00 00 00	 call	 __RTC_CheckEsp
  0012b	a3 00 00 00 00	 mov	 DWORD PTR _glad_glWaitSync, eax

; 1686 : 	glad_glGetInteger64v = (PFNGLGETINTEGER64VPROC)load("glGetInteger64v");

  00130	8b f4		 mov	 esi, esp
  00132	68 00 00 00 00	 push	 OFFSET ??_C@_0BA@INMBOHGL@glGetInteger64v@
  00137	ff 55 08	 call	 DWORD PTR _load$[ebp]
  0013a	83 c4 04	 add	 esp, 4
  0013d	3b f4		 cmp	 esi, esp
  0013f	e8 00 00 00 00	 call	 __RTC_CheckEsp
  00144	a3 00 00 00 00	 mov	 DWORD PTR _glad_glGetInteger64v, eax

; 1687 : 	glad_glGetSynciv = (PFNGLGETSYNCIVPROC)load("glGetSynciv");

  00149	8b f4		 mov	 esi, esp
  0014b	68 00 00 00 00	 push	 OFFSET ??_C@_0M@MPEEOPIN@glGetSynciv@
  00150	ff 55 08	 call	 DWORD PTR _load$[ebp]
  00153	83 c4 04	 add	 esp, 4
  00156	3b f4		 cmp	 esi, esp
  00158	e8 00 00 00 00	 call	 __RTC_CheckEsp
  0015d	a3 00 00 00 00	 mov	 DWORD PTR _glad_glGetSynciv, eax

; 1688 : 	glad_glGetInteger64i_v = (PFNGLGETINTEGER64I_VPROC)load("glGetInteger64i_v");

  00162	8b f4		 mov	 esi, esp
  00164	68 00 00 00 00	 push	 OFFSET ??_C@_0BC@KOJILIEC@glGetInteger64i_v@
  00169	ff 55 08	 call	 DWORD PTR _load$[ebp]
  0016c	83 c4 04	 add	 esp, 4
  0016f	3b f4		 cmp	 esi, esp
  00171	e8 00 00 00 00	 call	 __RTC_CheckEsp
  00176	a3 00 00 00 00	 mov	 DWORD PTR _glad_glGetInteger64i_v, eax

; 1689 : 	glad_glGetBufferParameteri64v = (PFNGLGETBUFFERPARAMETERI64VPROC)load("glGetBufferParameteri64v");

  0017b	8b f4		 mov	 esi, esp
  0017d	68 00 00 00 00	 push	 OFFSET ??_C@_0BJ@KKBIDGPP@glGetBufferParameteri64v@
  00182	ff 55 08	 call	 DWORD PTR _load$[ebp]
  00185	83 c4 04	 add	 esp, 4
  00188	3b f4		 cmp	 esi, esp
  0018a	e8 00 00 00 00	 call	 __RTC_CheckEsp
  0018f	a3 00 00 00 00	 mov	 DWORD PTR _glad_glGetBufferParameteri64v, eax

; 1690 : 	glad_glFramebufferTexture = (PFNGLFRAMEBUFFERTEXTUREPROC)load("glFramebufferTexture");

  00194	8b f4		 mov	 esi, esp
  00196	68 00 00 00 00	 push	 OFFSET ??_C@_0BF@ENLMLILA@glFramebufferTexture@
  0019b	ff 55 08	 call	 DWORD PTR _load$[ebp]
  0019e	83 c4 04	 add	 esp, 4
  001a1	3b f4		 cmp	 esi, esp
  001a3	e8 00 00 00 00	 call	 __RTC_CheckEsp
  001a8	a3 00 00 00 00	 mov	 DWORD PTR _glad_glFramebufferTexture, eax

; 1691 : 	glad_glTexImage2DMultisample = (PFNGLTEXIMAGE2DMULTISAMPLEPROC)load("glTexImage2DMultisample");

  001ad	8b f4		 mov	 esi, esp
  001af	68 00 00 00 00	 push	 OFFSET ??_C@_0BI@FHDFLFA@glTexImage2DMultisample@
  001b4	ff 55 08	 call	 DWORD PTR _load$[ebp]
  001b7	83 c4 04	 add	 esp, 4
  001ba	3b f4		 cmp	 esi, esp
  001bc	e8 00 00 00 00	 call	 __RTC_CheckEsp
  001c1	a3 00 00 00 00	 mov	 DWORD PTR _glad_glTexImage2DMultisample, eax

; 1692 : 	glad_glTexImage3DMultisample = (PFNGLTEXIMAGE3DMULTISAMPLEPROC)load("glTexImage3DMultisample");

  001c6	8b f4		 mov	 esi, esp
  001c8	68 00 00 00 00	 push	 OFFSET ??_C@_0BI@JIHMLKCG@glTexImage3DMultisample@
  001cd	ff 55 08	 call	 DWORD PTR _load$[ebp]
  001d0	83 c4 04	 add	 esp, 4
  001d3	3b f4		 cmp	 esi, esp
  001d5	e8 00 00 00 00	 call	 __RTC_CheckEsp
  001da	a3 00 00 00 00	 mov	 DWORD PTR _glad_glTexImage3DMultisample, eax

; 1693 : 	glad_glGetMultisamplefv = (PFNGLGETMULTISAMPLEFVPROC)load("glGetMultisamplefv");

  001df	8b f4		 mov	 esi, esp
  001e1	68 00 00 00 00	 push	 OFFSET ??_C@_0BD@DHLIMGN@glGetMultisamplefv@
  001e6	ff 55 08	 call	 DWORD PTR _load$[ebp]
  001e9	83 c4 04	 add	 esp, 4
  001ec	3b f4		 cmp	 esi, esp
  001ee	e8 00 00 00 00	 call	 __RTC_CheckEsp
  001f3	a3 00 00 00 00	 mov	 DWORD PTR _glad_glGetMultisamplefv, eax

; 1694 : 	glad_glSampleMaski = (PFNGLSAMPLEMASKIPROC)load("glSampleMaski");

  001f8	8b f4		 mov	 esi, esp
  001fa	68 00 00 00 00	 push	 OFFSET ??_C@_0O@JNHBCHMB@glSampleMaski@
  001ff	ff 55 08	 call	 DWORD PTR _load$[ebp]
  00202	83 c4 04	 add	 esp, 4
  00205	3b f4		 cmp	 esi, esp
  00207	e8 00 00 00 00	 call	 __RTC_CheckEsp
  0020c	a3 00 00 00 00	 mov	 DWORD PTR _glad_glSampleMaski, eax
$LN1@load_GL_VE:

; 1695 : }

  00211	5f		 pop	 edi
  00212	5e		 pop	 esi
  00213	5b		 pop	 ebx
  00214	81 c4 c0 00 00
	00		 add	 esp, 192		; 000000c0H
  0021a	3b ec		 cmp	 ebp, esp
  0021c	e8 00 00 00 00	 call	 __RTC_CheckEsp
  00221	8b e5		 mov	 esp, ebp
  00223	5d		 pop	 ebp
  00224	c3		 ret	 0
_load_GL_VERSION_3_2 ENDP
_TEXT	ENDS
; Function compile flags: /Odtp /RTCsu /ZI
; File C:\Users\Light\source\repos\Spacemonster\Spacemonster-code\glad\glad.c
;	COMDAT _load_GL_VERSION_3_1
_TEXT	SEGMENT
_load$ = 8						; size = 4
_load_GL_VERSION_3_1 PROC				; COMDAT

; 1656 : static void load_GL_VERSION_3_1(GLADloadproc load) {

  00000	55		 push	 ebp
  00001	8b ec		 mov	 ebp, esp
  00003	81 ec c0 00 00
	00		 sub	 esp, 192		; 000000c0H
  00009	53		 push	 ebx
  0000a	56		 push	 esi
  0000b	57		 push	 edi
  0000c	8d bd 40 ff ff
	ff		 lea	 edi, DWORD PTR [ebp-192]
  00012	b9 30 00 00 00	 mov	 ecx, 48			; 00000030H
  00017	b8 cc cc cc cc	 mov	 eax, -858993460		; ccccccccH
  0001c	f3 ab		 rep stosd
  0001e	b9 00 00 00 00	 mov	 ecx, OFFSET __550F0BDD_glad@c
  00023	e8 00 00 00 00	 call	 @__CheckForDebuggerJustMyCode@4

; 1657 : 	if(!GLAD_GL_VERSION_3_1) return;

  00028	83 3d 00 00 00
	00 00		 cmp	 DWORD PTR _GLAD_GL_VERSION_3_1, 0
  0002f	75 05		 jne	 SHORT $LN2@load_GL_VE
  00031	e9 77 01 00 00	 jmp	 $LN1@load_GL_VE
$LN2@load_GL_VE:

; 1658 : 	glad_glDrawArraysInstanced = (PFNGLDRAWARRAYSINSTANCEDPROC)load("glDrawArraysInstanced");

  00036	8b f4		 mov	 esi, esp
  00038	68 00 00 00 00	 push	 OFFSET ??_C@_0BG@HIOFINAN@glDrawArraysInstanced@
  0003d	ff 55 08	 call	 DWORD PTR _load$[ebp]
  00040	83 c4 04	 add	 esp, 4
  00043	3b f4		 cmp	 esi, esp
  00045	e8 00 00 00 00	 call	 __RTC_CheckEsp
  0004a	a3 00 00 00 00	 mov	 DWORD PTR _glad_glDrawArraysInstanced, eax

; 1659 : 	glad_glDrawElementsInstanced = (PFNGLDRAWELEMENTSINSTANCEDPROC)load("glDrawElementsInstanced");

  0004f	8b f4		 mov	 esi, esp
  00051	68 00 00 00 00	 push	 OFFSET ??_C@_0BI@CGJENFBH@glDrawElementsInstanced@
  00056	ff 55 08	 call	 DWORD PTR _load$[ebp]
  00059	83 c4 04	 add	 esp, 4
  0005c	3b f4		 cmp	 esi, esp
  0005e	e8 00 00 00 00	 call	 __RTC_CheckEsp
  00063	a3 00 00 00 00	 mov	 DWORD PTR _glad_glDrawElementsInstanced, eax

; 1660 : 	glad_glTexBuffer = (PFNGLTEXBUFFERPROC)load("glTexBuffer");

  00068	8b f4		 mov	 esi, esp
  0006a	68 00 00 00 00	 push	 OFFSET ??_C@_0M@IIMBBALL@glTexBuffer@
  0006f	ff 55 08	 call	 DWORD PTR _load$[ebp]
  00072	83 c4 04	 add	 esp, 4
  00075	3b f4		 cmp	 esi, esp
  00077	e8 00 00 00 00	 call	 __RTC_CheckEsp
  0007c	a3 00 00 00 00	 mov	 DWORD PTR _glad_glTexBuffer, eax

; 1661 : 	glad_glPrimitiveRestartIndex = (PFNGLPRIMITIVERESTARTINDEXPROC)load("glPrimitiveRestartIndex");

  00081	8b f4		 mov	 esi, esp
  00083	68 00 00 00 00	 push	 OFFSET ??_C@_0BI@LJDLNGAF@glPrimitiveRestartIndex@
  00088	ff 55 08	 call	 DWORD PTR _load$[ebp]
  0008b	83 c4 04	 add	 esp, 4
  0008e	3b f4		 cmp	 esi, esp
  00090	e8 00 00 00 00	 call	 __RTC_CheckEsp
  00095	a3 00 00 00 00	 mov	 DWORD PTR _glad_glPrimitiveRestartIndex, eax

; 1662 : 	glad_glCopyBufferSubData = (PFNGLCOPYBUFFERSUBDATAPROC)load("glCopyBufferSubData");

  0009a	8b f4		 mov	 esi, esp
  0009c	68 00 00 00 00	 push	 OFFSET ??_C@_0BE@EPKABDOG@glCopyBufferSubData@
  000a1	ff 55 08	 call	 DWORD PTR _load$[ebp]
  000a4	83 c4 04	 add	 esp, 4
  000a7	3b f4		 cmp	 esi, esp
  000a9	e8 00 00 00 00	 call	 __RTC_CheckEsp
  000ae	a3 00 00 00 00	 mov	 DWORD PTR _glad_glCopyBufferSubData, eax

; 1663 : 	glad_glGetUniformIndices = (PFNGLGETUNIFORMINDICESPROC)load("glGetUniformIndices");

  000b3	8b f4		 mov	 esi, esp
  000b5	68 00 00 00 00	 push	 OFFSET ??_C@_0BE@MDPMIDEE@glGetUniformIndices@
  000ba	ff 55 08	 call	 DWORD PTR _load$[ebp]
  000bd	83 c4 04	 add	 esp, 4
  000c0	3b f4		 cmp	 esi, esp
