; Listing generated by Microsoft (R) Optimizing Compiler Version 19.27.29111.0 

	TITLE	C:\Users\Light\source\repos\Spacemonster\Spacemonster-code\glmc\plane.c
	.686P
	.XMM
	include listing.inc
	.model	flat

INCLUDELIB MSVCRTD
INCLUDELIB OLDNAMES

msvcjmc	SEGMENT
__09340588_corecrt_math@h DB 01H
__B0C4CEA9_malloc@h DB 01H
__AF08451A_xmmintrin@h DB 01H
__01CC0242_x86@h DB 01H
__8B2C0229_util@h DB 01H
__E45A7869_vec2-ext@h DB 01H
__59A72D6B_vec2@h DB 01H
__422D73DD_vec3-ext@h DB 01H
__878A4D53_vec4-ext@h DB 01H
__5D2A51D9_vec4@h DB 01H
__5865475C_vec3@h DB 01H
__E3FCB8B3_mat4@h DB 01H
__0C756A67_mat4@h DB 01H
__E6B3AE36_mat3@h DB 01H
__093A7CE2_mat3@h DB 01H
__E771C401_mat2@h DB 01H
__08F816D5_mat2@h DB 01H
__CD658D3A_affine@h DB 01H
__1529E0A7_affine-mat@h DB 01H
__40ECD150_affine@h DB 01H
__FC78FBBD_plane@h DB 01H
__40246743_cam@h DB 01H
__EE1FA25F_frustum@h DB 01H
__15D5617C_quat@h DB 01H
__FA5CB3A8_quat@h DB 01H
__DBBFEDC2_euler@h DB 01H
__8776585B_box@h DB 01H
__759F1961_color@h DB 01H
__F66CEB67_corecrt_stdio_config@h DB 01H
__101834BA_corecrt_wstdio@h DB 01H
__AD6A91B7_stdio@h DB 01H
__DAA4108F_io@h DB 01H
__EDB727F9_project@h DB 01H
__9F492AA4_sphere@h DB 01H
__108F9434_ease@h DB 01H
__3C7ABC9F_curve@h DB 01H
__45F73C3A_bezier@h DB 01H
__068BD2DD_ray@h DB 01H
__10D40EFF_affine2d@h DB 01H
__1682C327_vec3@h DB 01H
__13CDD5A2_vec4@h DB 01H
__A60D0D8A_plane@c DB 01H
msvcjmc	ENDS
PUBLIC	_sqrtf
PUBLIC	_glm_vec4_zero
PUBLIC	_glm_vec4_scale
PUBLIC	_glm_vec3_dot
PUBLIC	_glm_vec3_norm2
PUBLIC	_glm_vec3_norm
PUBLIC	_glm_plane_normalize
PUBLIC	_glmc_plane_normalize
PUBLIC	__JustMyCode_Default
PUBLIC	__real@00000000
PUBLIC	__real@3f800000
EXTRN	_sqrt:PROC
EXTRN	@__CheckForDebuggerJustMyCode@4:PROC
EXTRN	__RTC_CheckEsp:PROC
EXTRN	__RTC_InitBase:PROC
EXTRN	__RTC_Shutdown:PROC
EXTRN	__fltused:DWORD
;	COMDAT __real@3f800000
CONST	SEGMENT
__real@3f800000 DD 03f800000r			; 1
CONST	ENDS
;	COMDAT __real@00000000
CONST	SEGMENT
__real@00000000 DD 000000000r			; 0
CONST	ENDS
;	COMDAT rtc$TMZ
rtc$TMZ	SEGMENT
__RTC_Shutdown.rtc$TMZ DD FLAT:__RTC_Shutdown
rtc$TMZ	ENDS
;	COMDAT rtc$IMZ
rtc$IMZ	SEGMENT
__RTC_InitBase.rtc$IMZ DD FLAT:__RTC_InitBase
rtc$IMZ	ENDS
; Function compile flags: /Odt
;	COMDAT __JustMyCode_Default
_TEXT	SEGMENT
__JustMyCode_Default PROC				; COMDAT
  00000	55		 push	 ebp
  00001	8b ec		 mov	 ebp, esp
  00003	5d		 pop	 ebp
  00004	c3		 ret	 0
__JustMyCode_Default ENDP
_TEXT	ENDS
; Function compile flags: /Odtp /RTCsu /ZI
; File C:\Users\Light\source\repos\Spacemonster\Spacemonster-code\glmc\plane.c
;	COMDAT _glmc_plane_normalize
_TEXT	SEGMENT
_plane$ = 8						; size = 4
_glmc_plane_normalize PROC				; COMDAT

; 13   : glmc_plane_normalize(vec4 plane) {

  00000	55		 push	 ebp
  00001	8b ec		 mov	 ebp, esp
  00003	81 ec c0 00 00
	00		 sub	 esp, 192		; 000000c0H
  00009	53		 push	 ebx
  0000a	56		 push	 esi
  0000b	57		 push	 edi
  0000c	8d bd 40 ff ff
	ff		 lea	 edi, DWORD PTR [ebp-192]
  00012	b9 30 00 00 00	 mov	 ecx, 48			; 00000030H
  00017	b8 cc cc cc cc	 mov	 eax, -858993460		; ccccccccH
  0001c	f3 ab		 rep stosd
  0001e	b9 00 00 00 00	 mov	 ecx, OFFSET __A60D0D8A_plane@c
  00023	e8 00 00 00 00	 call	 @__CheckForDebuggerJustMyCode@4

; 14   :   glm_plane_normalize(plane);

  00028	8b 45 08	 mov	 eax, DWORD PTR _plane$[ebp]
  0002b	50		 push	 eax
  0002c	e8 00 00 00 00	 call	 _glm_plane_normalize
  00031	83 c4 04	 add	 esp, 4

; 15   : }

  00034	5f		 pop	 edi
  00035	5e		 pop	 esi
  00036	5b		 pop	 ebx
  00037	81 c4 c0 00 00
	00		 add	 esp, 192		; 000000c0H
  0003d	3b ec		 cmp	 ebp, esp
  0003f	e8 00 00 00 00	 call	 __RTC_CheckEsp
  00044	8b e5		 mov	 esp, ebp
  00046	5d		 pop	 ebp
  00047	c3		 ret	 0
_glmc_plane_normalize ENDP
_TEXT	ENDS
; Function compile flags: /Odtp /RTCsu /ZI
; File C:\Users\Light\source\repos\Spacemonster\Spacemonster-code\include\plane.h
;	COMDAT _glm_plane_normalize
_TEXT	SEGMENT
_norm$ = -8						; size = 4
_plane$ = 8						; size = 4
_glm_plane_normalize PROC				; COMDAT

; 32   : glm_plane_normalize(vec4 plane) {

  00000	55		 push	 ebp
  00001	8b ec		 mov	 ebp, esp
  00003	81 ec cc 00 00
	00		 sub	 esp, 204		; 000000ccH
  00009	53		 push	 ebx
  0000a	56		 push	 esi
  0000b	57		 push	 edi
  0000c	8d bd 34 ff ff
	ff		 lea	 edi, DWORD PTR [ebp-204]
  00012	b9 33 00 00 00	 mov	 ecx, 51			; 00000033H
  00017	b8 cc cc cc cc	 mov	 eax, -858993460		; ccccccccH
  0001c	f3 ab		 rep stosd
  0001e	b9 00 00 00 00	 mov	 ecx, OFFSET __FC78FBBD_plane@h
  00023	e8 00 00 00 00	 call	 @__CheckForDebuggerJustMyCode@4

; 33   :   float norm;
; 34   :   
; 35   :   if ((norm = glm_vec3_norm(plane)) == 0.0f) {

  00028	8b 45 08	 mov	 eax, DWORD PTR _plane$[ebp]
  0002b	50		 push	 eax
  0002c	e8 00 00 00 00	 call	 _glm_vec3_norm
  00031	83 c4 04	 add	 esp, 4
  00034	d9 5d f8	 fstp	 DWORD PTR _norm$[ebp]
  00037	f3 0f 10 45 f8	 movss	 xmm0, DWORD PTR _norm$[ebp]
  0003c	0f 2e 05 00 00
	00 00		 ucomiss xmm0, DWORD PTR __real@00000000
  00043	9f		 lahf
  00044	f6 c4 44	 test	 ah, 68			; 00000044H
  00047	7a 0e		 jp	 SHORT $LN2@glm_plane_

; 36   :     glm_vec4_zero(plane);

  00049	8b 45 08	 mov	 eax, DWORD PTR _plane$[ebp]
  0004c	50		 push	 eax
  0004d	e8 00 00 00 00	 call	 _glm_vec4_zero
  00052	83 c4 04	 add	 esp, 4

; 37   :     return;

  00055	eb 23		 jmp	 SHORT $LN1@glm_plane_
$LN2@glm_plane_:

; 38   :   }
; 39   :   
; 40   :   glm_vec4_scale(plane, 1.0f / norm, plane);

  00057	8b 45 08	 mov	 eax, DWORD PTR _plane$[ebp]
  0005a	50		 push	 eax
  0005b	f3 0f 10 05 00
	00 00 00	 movss	 xmm0, DWORD PTR __real@3f800000
  00063	f3 0f 5e 45 f8	 divss	 xmm0, DWORD PTR _norm$[ebp]
  00068	51		 push	 ecx
  00069	f3 0f 11 04 24	 movss	 DWORD PTR [esp], xmm0
  0006e	8b 4d 08	 mov	 ecx, DWORD PTR _plane$[ebp]
  00071	51		 push	 ecx
  00072	e8 00 00 00 00	 call	 _glm_vec4_scale
  00077	83 c4 0c	 add	 esp, 12			; 0000000cH
$LN1@glm_plane_:

; 41   : }

  0007a	5f		 pop	 edi
  0007b	5e		 pop	 esi
  0007c	5b		 pop	 ebx
  0007d	81 c4 cc 00 00
	00		 add	 esp, 204		; 000000ccH
  00083	3b ec		 cmp	 ebp, esp
  00085	e8 00 00 00 00	 call	 __RTC_CheckEsp
  0008a	8b e5		 mov	 esp, ebp
  0008c	5d		 pop	 ebp
  0008d	c3		 ret	 0
_glm_plane_normalize ENDP
_TEXT	ENDS
; Function compile flags: /Odtp /RTCsu /ZI
; File C:\Users\Light\source\repos\Spacemonster\Spacemonster-code\include\vec3.h
;	COMDAT _glm_vec3_norm
_TEXT	SEGMENT
_v$ = 8							; size = 4
_glm_vec3_norm PROC					; COMDAT

; 215  : glm_vec3_norm(vec3 v) {

  00000	55		 push	 ebp
  00001	8b ec		 mov	 ebp, esp
  00003	81 ec c0 00 00
	00		 sub	 esp, 192		; 000000c0H
  00009	53		 push	 ebx
  0000a	56		 push	 esi
  0000b	57		 push	 edi
  0000c	8d bd 40 ff ff
	ff		 lea	 edi, DWORD PTR [ebp-192]
  00012	b9 30 00 00 00	 mov	 ecx, 48			; 00000030H
  00017	b8 cc cc cc cc	 mov	 eax, -858993460		; ccccccccH
  0001c	f3 ab		 rep stosd
  0001e	b9 00 00 00 00	 mov	 ecx, OFFSET __5865475C_vec3@h
  00023	e8 00 00 00 00	 call	 @__CheckForDebuggerJustMyCode@4

; 216  :   return sqrtf(glm_vec3_norm2(v));

  00028	8b 45 08	 mov	 eax, DWORD PTR _v$[ebp]
  0002b	50		 push	 eax
  0002c	e8 00 00 00 00	 call	 _glm_vec3_norm2
  00031	d9 1c 24	 fstp	 DWORD PTR [esp]
  00034	e8 00 00 00 00	 call	 _sqrtf
  00039	83 c4 04	 add	 esp, 4

; 217  : }

  0003c	5f		 pop	 edi
  0003d	5e		 pop	 esi
  0003e	5b		 pop	 ebx
  0003f	81 c4 c0 00 00
	00		 add	 esp, 192		; 000000c0H
  00045	3b ec		 cmp	 ebp, esp
  00047	e8 00 00 00 00	 call	 __RTC_CheckEsp
  0004c	8b e5		 mov	 esp, ebp
  0004e	5d		 pop	 ebp
  0004f	c3		 ret	 0
_glm_vec3_norm ENDP
_TEXT	ENDS
; Function compile flags: /Odtp /RTCsu /ZI
; File C:\Users\Light\source\repos\Spacemonster\Spacemonster-code\include\vec3.h
;	COMDAT _glm_vec3_norm2
_TEXT	SEGMENT
_v$ = 8							; size = 4
_glm_vec3_norm2 PROC					; COMDAT

; 201  : glm_vec3_norm2(vec3 v) {

  00000	55		 push	 ebp
  00001	8b ec		 mov	 ebp, esp
  00003	81 ec c0 00 00
	00		 sub	 esp, 192		; 000000c0H
  00009	53		 push	 ebx
  0000a	56		 push	 esi
  0000b	57		 push	 edi
  0000c	8d bd 40 ff ff
	ff		 lea	 edi, DWORD PTR [ebp-192]
  00012	b9 30 00 00 00	 mov	 ecx, 48			; 00000030H
  00017	b8 cc cc cc cc	 mov	 eax, -858993460		; ccccccccH
  0001c	f3 ab		 rep stosd
  0001e	b9 00 00 00 00	 mov	 ecx, OFFSET __5865475C_vec3@h
  00023	e8 00 00 00 00	 call	 @__CheckForDebuggerJustMyCode@4

; 202  :   return glm_vec3_dot(v, v);

  00028	8b 45 08	 mov	 eax, DWORD PTR _v$[ebp]
  0002b	50		 push	 eax
  0002c	8b 4d 08	 mov	 ecx, DWORD PTR _v$[ebp]
  0002f	51		 push	 ecx
  00030	e8 00 00 00 00	 call	 _glm_vec3_dot
  00035	83 c4 08	 add	 esp, 8

; 203  : }

  00038	5f		 pop	 edi
  00039	5e		 pop	 esi
  0003a	5b		 pop	 ebx
  0003b	81 c4 c0 00 00
	00		 add	 esp, 192		; 000000c0H
  00041	3b ec		 cmp	 ebp, esp
  00043	e8 00 00 00 00	 call	 __RTC_CheckEsp
  00048	8b e5		 mov	 esp, ebp
  0004a	5d		 pop	 ebp
  0004b	c3		 ret	 0
_glm_vec3_norm2 ENDP
_TEXT	ENDS
; Function compile flags: /Odtp /RTCsu /ZI
; File C:\Users\Light\source\repos\Spacemonster\Spacemonster-code\include\vec3.h
;	COMDAT _glm_vec3_dot
_TEXT	SEGMENT
tv130 = -196						; size = 4
_a$ = 8							; size = 4
_b$ = 12						; size = 4
_glm_vec3_dot PROC					; COMDAT

; 184  : glm_vec3_dot(vec3 a, vec3 b) {

  00000	55		 push	 ebp
  00001	8b ec		 mov	 ebp, esp
  00003	81 ec c4 00 00
	00		 sub	 esp, 196		; 000000c4H
  00009	53		 push	 ebx
  0000a	56		 push	 esi
  0000b	57		 push	 edi
  0000c	8d bd 3c ff ff
	ff		 lea	 edi, DWORD PTR [ebp-196]
  00012	b9 31 00 00 00	 mov	 ecx, 49			; 00000031H
  00017	b8 cc cc cc cc	 mov	 eax, -858993460		; ccccccccH
  0001c	f3 ab		 rep stosd
  0001e	b9 00 00 00 00	 mov	 ecx, OFFSET __5865475C_vec3@h
  00023	e8 00 00 00 00	 call	 @__CheckForDebuggerJustMyCode@4

; 185  :   return a[0] * b[0] + a[1] * b[1] + a[2] * b[2];

  00028	b8 04 00 00 00	 mov	 eax, 4
  0002d	6b c8 00	 imul	 ecx, eax, 0
  00030	ba 04 00 00 00	 mov	 edx, 4
  00035	6b c2 00	 imul	 eax, edx, 0
  00038	8b 55 08	 mov	 edx, DWORD PTR _a$[ebp]
  0003b	8b 75 0c	 mov	 esi, DWORD PTR _b$[ebp]
  0003e	f3 0f 10 04 0a	 movss	 xmm0, DWORD PTR [edx+ecx]
  00043	f3 0f 59 04 06	 mulss	 xmm0, DWORD PTR [esi+eax]
  00048	b8 04 00 00 00	 mov	 eax, 4
  0004d	c1 e0 00	 shl	 eax, 0
  00050	b9 04 00 00 00	 mov	 ecx, 4
  00055	c1 e1 00	 shl	 ecx, 0
  00058	8b 55 08	 mov	 edx, DWORD PTR _a$[ebp]
  0005b	8b 75 0c	 mov	 esi, DWORD PTR _b$[ebp]
  0005e	f3 0f 10 0c 02	 movss	 xmm1, DWORD PTR [edx+eax]
  00063	f3 0f 59 0c 0e	 mulss	 xmm1, DWORD PTR [esi+ecx]
  00068	f3 0f 58 c1	 addss	 xmm0, xmm1
  0006c	b8 04 00 00 00	 mov	 eax, 4
  00071	d1 e0		 shl	 eax, 1
  00073	b9 04 00 00 00	 mov	 ecx, 4
  00078	d1 e1		 shl	 ecx, 1
  0007a	8b 55 08	 mov	 edx, DWORD PTR _a$[ebp]
  0007d	8b 75 0c	 mov	 esi, DWORD PTR _b$[ebp]
  00080	f3 0f 10 0c 02	 movss	 xmm1, DWORD PTR [edx+eax]
  00085	f3 0f 59 0c 0e	 mulss	 xmm1, DWORD PTR [esi+ecx]
  0008a	f3 0f 58 c1	 addss	 xmm0, xmm1
  0008e	f3 0f 11 85 3c
	ff ff ff	 movss	 DWORD PTR tv130[ebp], xmm0
  00096	d9 85 3c ff ff
	ff		 fld	 DWORD PTR tv130[ebp]

; 186  : }

  0009c	5f		 pop	 edi
  0009d	5e		 pop	 esi
  0009e	5b		 pop	 ebx
  0009f	81 c4 c4 00 00
	00		 add	 esp, 196		; 000000c4H
  000a5	3b ec		 cmp	 ebp, esp
  000a7	e8 00 00 00 00	 call	 __RTC_CheckEsp
  000ac	8b e5		 mov	 esp, ebp
  000ae	5d		 pop	 ebp
  000af	c3		 ret	 0
_glm_vec3_dot ENDP
_TEXT	ENDS
; Function compile flags: /Odtp /RTCsu /ZI
; File C:\Users\Light\source\repos\Spacemonster\Spacemonster-code\include\vec4.h
;	COMDAT _glm_vec4_scale
_TEXT	SEGMENT
_v$ = 8							; size = 4
_s$ = 12						; size = 4
_dest$ = 16						; size = 4
_glm_vec4_scale PROC					; COMDAT

; 432  : glm_vec4_scale(vec4 v, float s, vec4 dest) {

  00000	55		 push	 ebp
  00001	8b ec		 mov	 ebp, esp
  00003	81 ec c0 00 00
	00		 sub	 esp, 192		; 000000c0H
  00009	53		 push	 ebx
  0000a	56		 push	 esi
  0000b	57		 push	 edi
  0000c	8d bd 40 ff ff
	ff		 lea	 edi, DWORD PTR [ebp-192]
  00012	b9 30 00 00 00	 mov	 ecx, 48			; 00000030H
  00017	b8 cc cc cc cc	 mov	 eax, -858993460		; ccccccccH
  0001c	f3 ab		 rep stosd
  0001e	b9 00 00 00 00	 mov	 ecx, OFFSET __5D2A51D9_vec4@h
  00023	e8 00 00 00 00	 call	 @__CheckForDebuggerJustMyCode@4

; 433  : #if defined( __SSE__ ) || defined( __SSE2__ )
; 434  :   glmm_store(dest, _mm_mul_ps(glmm_load(v), _mm_set1_ps(s)));

  00028	f3 0f 10 45 0c	 movss	 xmm0, DWORD PTR _s$[ebp]
  0002d	0f c6 c0 00	 shufps	 xmm0, xmm0, 0
  00031	8b 45 08	 mov	 eax, DWORD PTR _v$[ebp]
  00034	0f 10 08	 movups	 xmm1, XMMWORD PTR [eax]
  00037	0f 59 c8	 mulps	 xmm1, xmm0
  0003a	8b 4d 10	 mov	 ecx, DWORD PTR _dest$[ebp]
  0003d	0f 11 09	 movups	 XMMWORD PTR [ecx], xmm1

; 435  : #elif defined(CGLM_NEON_FP)
; 436  :   vst1q_f32(dest, vmulq_f32(vld1q_f32(v), vdupq_n_f32(s)));
; 437  : #else
; 438  :   dest[0] = v[0] * s;
; 439  :   dest[1] = v[1] * s;
; 440  :   dest[2] = v[2] * s;
; 441  :   dest[3] = v[3] * s;
; 442  : #endif
; 443  : }

  00040	5f		 pop	 edi
  00041	5e		 pop	 esi
  00042	5b		 pop	 ebx
  00043	81 c4 c0 00 00
	00		 add	 esp, 192		; 000000c0H
  00049	3b ec		 cmp	 ebp, esp
  0004b	e8 00 00 00 00	 call	 __RTC_CheckEsp
  00050	8b e5		 mov	 esp, ebp
  00052	5d		 pop	 ebp
  00053	c3		 ret	 0
_glm_vec4_scale ENDP
_TEXT	ENDS
; Function compile flags: /Odtp /RTCsu /ZI
; File C:\Users\Light\source\repos\Spacemonster\Spacemonster-code\include\vec4.h
;	COMDAT _glm_vec4_zero
_TEXT	SEGMENT
_v$ = 8							; size = 4
_glm_vec4_zero PROC					; COMDAT

; 176  : glm_vec4_zero(vec4 v) {

  00000	55		 push	 ebp
  00001	8b ec		 mov	 ebp, esp
  00003	81 ec c0 00 00
	00		 sub	 esp, 192		; 000000c0H
  00009	53		 push	 ebx
  0000a	56		 push	 esi
  0000b	57		 push	 edi
  0000c	8d bd 40 ff ff
	ff		 lea	 edi, DWORD PTR [ebp-192]
  00012	b9 30 00 00 00	 mov	 ecx, 48			; 00000030H
  00017	b8 cc cc cc cc	 mov	 eax, -858993460		; ccccccccH
  0001c	f3 ab		 rep stosd
  0001e	b9 00 00 00 00	 mov	 ecx, OFFSET __5D2A51D9_vec4@h
  00023	e8 00 00 00 00	 call	 @__CheckForDebuggerJustMyCode@4

; 177  : #if defined( __SSE__ ) || defined( __SSE2__ )
; 178  :   glmm_store(v, _mm_setzero_ps());

  00028	0f 57 c0	 xorps	 xmm0, xmm0
  0002b	8b 45 08	 mov	 eax, DWORD PTR _v$[ebp]
  0002e	0f 11 00	 movups	 XMMWORD PTR [eax], xmm0

; 179  : #elif defined(CGLM_NEON_FP)
; 180  :   vst1q_f32(v, vdupq_n_f32(0.0f));
; 181  : #else
; 182  :   v[0] = 0.0f;
; 183  :   v[1] = 0.0f;
; 184  :   v[2] = 0.0f;
; 185  :   v[3] = 0.0f;
; 186  : #endif
; 187  : }

  00031	5f		 pop	 edi
  00032	5e		 pop	 esi
  00033	5b		 pop	 ebx
  00034	81 c4 c0 00 00
	00		 add	 esp, 192		; 000000c0H
  0003a	3b ec		 cmp	 ebp, esp
  0003c	e8 00 00 00 00	 call	 __RTC_CheckEsp
  00041	8b e5		 mov	 esp, ebp
  00043	5d		 pop	 ebp
  00044	c3		 ret	 0
_glm_vec4_zero ENDP
_TEXT	ENDS
; Function compile flags: /Odtp /RTCsu /ZI
; File C:\Program Files (x86)\Windows Kits\10\Include\10.0.18362.0\ucrt\corecrt_math.h
;	COMDAT _sqrtf
_TEXT	SEGMENT
tv72 = -196						; size = 4
__X$ = 8						; size = 4
_sqrtf	PROC						; COMDAT

; 759  :         {

  00000	55		 push	 ebp
  00001	8b ec		 mov	 ebp, esp
  00003	81 ec c4 00 00
	00		 sub	 esp, 196		; 000000c4H
  00009	53		 push	 ebx
  0000a	56		 push	 esi
  0000b	57		 push	 edi
  0000c	8d bd 3c ff ff
	ff		 lea	 edi, DWORD PTR [ebp-196]
  00012	b9 31 00 00 00	 mov	 ecx, 49			; 00000031H
  00017	b8 cc cc cc cc	 mov	 eax, -858993460		; ccccccccH
  0001c	f3 ab		 rep stosd
  0001e	b9 00 00 00 00	 mov	 ecx, OFFSET __09340588_corecrt_math@h
  00023	e8 00 00 00 00	 call	 @__CheckForDebuggerJustMyCode@4

; 760  :             return (float)sqrt(_X);

  00028	f3 0f 5a 45 08	 cvtss2sd xmm0, DWORD PTR __X$[ebp]
  0002d	83 ec 08	 sub	 esp, 8
  00030	f2 0f 11 04 24	 movsd	 QWORD PTR [esp], xmm0
  00035	e8 00 00 00 00	 call	 _sqrt
  0003a	83 c4 08	 add	 esp, 8
  0003d	d9 9d 3c ff ff
	ff		 fstp	 DWORD PTR tv72[ebp]
  00043	d9 85 3c ff ff
	ff		 fld	 DWORD PTR tv72[ebp]

; 761  :         }

  00049	5f		 pop	 edi
  0004a	5e		 pop	 esi
  0004b	5b		 pop	 ebx
  0004c	81 c4 c4 00 00
	00		 add	 esp, 196		; 000000c4H
  00052	3b ec		 cmp	 ebp, esp
  00054	e8 00 00 00 00	 call	 __RTC_CheckEsp
  00059	8b e5		 mov	 esp, ebp
  0005b	5d		 pop	 ebp
  0005c	c3		 ret	 0
_sqrtf	ENDP
_TEXT	ENDS
END
